	.text
	.syntax unified
	.eabi_attribute	67, "2.09"	@ Tag_conformance
	.cpu	cortex-m4
	.eabi_attribute	6, 13	@ Tag_CPU_arch
	.eabi_attribute	7, 77	@ Tag_CPU_arch_profile
	.eabi_attribute	8, 0	@ Tag_ARM_ISA_use
	.eabi_attribute	9, 2	@ Tag_THUMB_ISA_use
	.fpu	fpv4-sp-d16
	.eabi_attribute	27, 1	@ Tag_ABI_HardFP_use
	.eabi_attribute	36, 1	@ Tag_FP_HP_extension
	.eabi_attribute	34, 1	@ Tag_CPU_unaligned_access
	.eabi_attribute	17, 1	@ Tag_ABI_PCS_GOT_use
	.eabi_attribute	20, 2	@ Tag_ABI_FP_denormal
	.eabi_attribute	21, 0	@ Tag_ABI_FP_exceptions
	.eabi_attribute	23, 1	@ Tag_ABI_FP_number_model
	.eabi_attribute	24, 1	@ Tag_ABI_align_needed
	.eabi_attribute	25, 1	@ Tag_ABI_align_preserved
	.eabi_attribute	28, 1	@ Tag_ABI_VFP_args
	.eabi_attribute	38, 1	@ Tag_ABI_FP_16bit_format
	.eabi_attribute	18, 2	@ Tag_ABI_PCS_wchar_t
	.eabi_attribute	26, 1	@ Tag_ABI_enum_size
	.eabi_attribute	14, 0	@ Tag_ABI_PCS_R9_use
	.file	"clk.c"
	.file	1 "C:\\Users\\Admin" "AppData\\Local\\Keil_v5\\ARM\\ARMCLANG\\bin\\..\\include\\stdint.h"
	.file	2 "C:\\Users\\Admin\\Downloads\\EEET2481_Tutorial_1_LED_Sweep" "Library/StdDriver/src/clk.c"
	.file	3 "C:\\Users\\Admin\\Downloads\\EEET2481_Tutorial_1_LED_Sweep" "./Library/Device/Nuvoton/M480/Include\\clk_reg.h"
	.file	4 "C:\\Users\\Admin\\Downloads\\EEET2481_Tutorial_1_LED_Sweep" "./Library/CMSIS/Include\\core_cm4.h"
	.file	5 "C:\\Users\\Admin\\Downloads\\EEET2481_Tutorial_1_LED_Sweep" "./Library/Device/Nuvoton/M480/Include\\sys_reg.h"
	.file	6 "C:\\Users\\Admin\\Downloads\\EEET2481_Tutorial_1_LED_Sweep" "./Library/Device/Nuvoton/M480/Include\\M480.h"
	.hidden	CLK_DisableCKO                  @ -- Begin function CLK_DisableCKO
	.globl	CLK_DisableCKO
	.p2align	2
	.type	CLK_DisableCKO,%function
	.code	16                              @ @CLK_DisableCKO
	.thumb_func
CLK_DisableCKO:
.Lfunc_begin0:
	.loc	2 33 0                          @ Library/StdDriver/src/clk.c:33:0
	.fnstart
	.cfi_sections .debug_frame
	.cfi_startproc
@ %bb.0:
	movw	r0, #520
	movt	r0, #16384
.Ltmp0:
	@DEBUG_VALUE: CLK_DisableModuleClock:u32tmpAddr <- 1073742344
	@DEBUG_VALUE: CLK_DisableModuleClock:u32tmpVal <- -65
	@DEBUG_VALUE: CLK_DisableModuleClock:u32ModuleIdx <- 1472200710
	.loc	2 778 29 prologue_end           @ Library/StdDriver/src/clk.c:778:29
	ldr	r1, [r0]
	bic	r1, r1, #64
	str	r1, [r0]
.Ltmp1:
	.loc	2 36 1                          @ Library/StdDriver/src/clk.c:36:1
	bx	lr
.Ltmp2:
.Lfunc_end0:
	.size	CLK_DisableCKO, .Lfunc_end0-CLK_DisableCKO
	.cfi_endproc
	.cantunwind
	.fnend
                                        @ -- End function
	.hidden	CLK_DisableModuleClock          @ -- Begin function CLK_DisableModuleClock
	.globl	CLK_DisableModuleClock
	.p2align	2
	.type	CLK_DisableModuleClock,%function
	.code	16                              @ @CLK_DisableModuleClock
	.thumb_func
CLK_DisableModuleClock:
.Lfunc_begin1:
	.loc	2 771 0                         @ Library/StdDriver/src/clk.c:771:0
	.fnstart
	.cfi_startproc
@ %bb.0:
	@DEBUG_VALUE: CLK_DisableModuleClock:u32ModuleIdx <- $r0
	@DEBUG_VALUE: CLK_DisableModuleClock:u32tmpVal <- 0
	@DEBUG_VALUE: CLK_DisableModuleClock:u32tmpAddr <- 0
	movw	r3, #516
.Ltmp3:
	.loc	2 774 26 prologue_end           @ Library/StdDriver/src/clk.c:774:26
	and	r1, r0, #31
	.loc	2 776 49                        @ Library/StdDriver/src/clk.c:776:49
	lsrs	r0, r0, #30
.Ltmp4:
	@DEBUG_VALUE: CLK_DisableModuleClock:u32ModuleIdx <- [DW_OP_LLVM_entry_value 1] $r0
	.loc	2 0 49 is_stmt 0                @ Library/StdDriver/src/clk.c:0:49
	movt	r3, #16384
.Ltmp5:
	@DEBUG_VALUE: CLK_DisableModuleClock:u32tmpAddr <- undef
	mov.w	r12, #1
	.loc	2 778 29 is_stmt 1              @ Library/StdDriver/src/clk.c:778:29
	ldr.w	r2, [r3, r0, lsl #2]
	.loc	2 774 23                        @ Library/StdDriver/src/clk.c:774:23
	lsl.w	r1, r12, r1
.Ltmp6:
	@DEBUG_VALUE: CLK_DisableModuleClock:u32tmpVal <- undef
	.loc	2 778 29                        @ Library/StdDriver/src/clk.c:778:29
	bic.w	r1, r2, r1
	str.w	r1, [r3, r0, lsl #2]
	.loc	2 779 1                         @ Library/StdDriver/src/clk.c:779:1
	bx	lr
.Ltmp7:
.Lfunc_end1:
	.size	CLK_DisableModuleClock, .Lfunc_end1-CLK_DisableModuleClock
	.cfi_endproc
	.cantunwind
	.fnend
                                        @ -- End function
	.hidden	CLK_EnableCKO                   @ -- Begin function CLK_EnableCKO
	.globl	CLK_EnableCKO
	.p2align	2
	.type	CLK_EnableCKO,%function
	.code	16                              @ @CLK_EnableCKO
	.thumb_func
CLK_EnableCKO:
.Lfunc_begin2:
	.fnstart
	.cfi_startproc
@ %bb.0:
	@DEBUG_VALUE: CLK_EnableCKO:u32ClkSrc <- $r0
	@DEBUG_VALUE: CLK_EnableCKO:u32ClkDiv <- $r1
	@DEBUG_VALUE: CLK_EnableCKO:u32ClkDivBy1En <- $r2
	.loc	2 58 57 prologue_end            @ Library/StdDriver/src/clk.c:58:57
	orr.w	r1, r1, r2, lsl #5
.Ltmp8:
	@DEBUG_VALUE: CLK_EnableCKO:u32ClkDiv <- [DW_OP_LLVM_entry_value 1] $r1
	.loc	2 0 57 is_stmt 0                @ Library/StdDriver/src/clk.c:0:57
	movw	r2, #520
.Ltmp9:
	@DEBUG_VALUE: CLK_EnableCKO:u32ClkDivBy1En <- [DW_OP_LLVM_entry_value 1] $r2
	.loc	2 58 57                         @ Library/StdDriver/src/clk.c:58:57
	orr	r1, r1, #16
	movt	r2, #16384
	.loc	2 58 18                         @ Library/StdDriver/src/clk.c:58:18
	str	r1, [r2, #88]
.Ltmp10:
	@DEBUG_VALUE: CLK_EnableModuleClock:u32tmpAddr <- 1073742344
	@DEBUG_VALUE: CLK_EnableModuleClock:u32tmpVal <- 64
	@DEBUG_VALUE: CLK_EnableModuleClock:u32ModuleIdx <- 1472200710
	.loc	2 695 38 is_stmt 1              @ Library/StdDriver/src/clk.c:695:38
	ldr	r1, [r2]
	orr	r1, r1, #64
	str	r1, [r2]
.Ltmp11:
	@DEBUG_VALUE: CLK_SetModuleClock:u32sel <- 1073742356
	@DEBUG_VALUE: CLK_SetModuleClock:u32div <- 0
	@DEBUG_VALUE: CLK_SetModuleClock:u32ClkDiv <- 0
	@DEBUG_VALUE: CLK_SetModuleClock:u32ClkSrc <- undef
	@DEBUG_VALUE: CLK_SetModuleClock:u32ModuleIdx <- 1472200710
	.loc	2 561 24                        @ Library/StdDriver/src/clk.c:561:24
	ldr	r1, [r2, #12]
	.loc	2 561 36 is_stmt 0              @ Library/StdDriver/src/clk.c:561:36
	bic	r1, r1, #805306368
	.loc	2 561 111                       @ Library/StdDriver/src/clk.c:561:111
	orrs	r0, r1
.Ltmp12:
	@DEBUG_VALUE: CLK_EnableCKO:u32ClkSrc <- [DW_OP_LLVM_entry_value 1] $r0
	.loc	2 561 21                        @ Library/StdDriver/src/clk.c:561:21
	str	r0, [r2, #12]
.Ltmp13:
	.loc	2 65 1 is_stmt 1                @ Library/StdDriver/src/clk.c:65:1
	bx	lr
.Ltmp14:
.Lfunc_end2:
	.size	CLK_EnableCKO, .Lfunc_end2-CLK_EnableCKO
	.cfi_endproc
	.cantunwind
	.fnend
                                        @ -- End function
	.hidden	CLK_EnableModuleClock           @ -- Begin function CLK_EnableModuleClock
	.globl	CLK_EnableModuleClock
	.p2align	2
	.type	CLK_EnableModuleClock,%function
	.code	16                              @ @CLK_EnableModuleClock
	.thumb_func
CLK_EnableModuleClock:
.Lfunc_begin3:
	.loc	2 688 0                         @ Library/StdDriver/src/clk.c:688:0
	.fnstart
	.cfi_startproc
@ %bb.0:
	@DEBUG_VALUE: CLK_EnableModuleClock:u32ModuleIdx <- $r0
	@DEBUG_VALUE: CLK_EnableModuleClock:u32tmpVal <- 0
	@DEBUG_VALUE: CLK_EnableModuleClock:u32tmpAddr <- 0
	movw	r3, #516
.Ltmp15:
	.loc	2 691 25 prologue_end           @ Library/StdDriver/src/clk.c:691:25
	and	r1, r0, #31
	.loc	2 693 49                        @ Library/StdDriver/src/clk.c:693:49
	lsrs	r0, r0, #30
.Ltmp16:
	@DEBUG_VALUE: CLK_EnableModuleClock:u32ModuleIdx <- [DW_OP_LLVM_entry_value 1] $r0
	.loc	2 0 49 is_stmt 0                @ Library/StdDriver/src/clk.c:0:49
	movt	r3, #16384
.Ltmp17:
	@DEBUG_VALUE: CLK_EnableModuleClock:u32tmpAddr <- undef
	mov.w	r12, #1
	.loc	2 695 38 is_stmt 1              @ Library/StdDriver/src/clk.c:695:38
	ldr.w	r2, [r3, r0, lsl #2]
	.loc	2 691 22                        @ Library/StdDriver/src/clk.c:691:22
	lsl.w	r1, r12, r1
.Ltmp18:
	@DEBUG_VALUE: CLK_EnableModuleClock:u32tmpVal <- $r1
	.loc	2 695 38                        @ Library/StdDriver/src/clk.c:695:38
	orrs	r1, r2
.Ltmp19:
	str.w	r1, [r3, r0, lsl #2]
	.loc	2 696 1                         @ Library/StdDriver/src/clk.c:696:1
	bx	lr
.Ltmp20:
.Lfunc_end3:
	.size	CLK_EnableModuleClock, .Lfunc_end3-CLK_EnableModuleClock
	.cfi_endproc
	.cantunwind
	.fnend
                                        @ -- End function
	.hidden	CLK_SetModuleClock              @ -- Begin function CLK_SetModuleClock
	.globl	CLK_SetModuleClock
	.p2align	2
	.type	CLK_SetModuleClock,%function
	.code	16                              @ @CLK_SetModuleClock
	.thumb_func
CLK_SetModuleClock:
.Lfunc_begin4:
	.loc	2 506 0                         @ Library/StdDriver/src/clk.c:506:0
	.fnstart
	.cfi_startproc
@ %bb.0:
	@DEBUG_VALUE: CLK_SetModuleClock:u32ModuleIdx <- $r0
	@DEBUG_VALUE: CLK_SetModuleClock:u32ClkSrc <- $r1
	@DEBUG_VALUE: CLK_SetModuleClock:u32ClkDiv <- $r2
	.save	{r4, r5, r6, lr}
	push	{r4, r5, r6, lr}
	.cfi_def_cfa_offset 16
	.cfi_offset lr, -4
	.cfi_offset r6, -8
	.cfi_offset r5, -12
	.cfi_offset r4, -16
.Ltmp21:
	.loc	2 509 8 prologue_end            @ Library/StdDriver/src/clk.c:509:8
	ubfx	lr, r0, #10, #8
	movw	r12, #544
.Ltmp22:
	.loc	2 509 8 is_stmt 0               @ Library/StdDriver/src/clk.c:509:8
	cmp.w	lr, #0
	movt	r12, #16384
.Ltmp23:
	@DEBUG_VALUE: CLK_SetModuleClock:u32div <- 0
	@DEBUG_VALUE: CLK_SetModuleClock:u32sel <- 0
	beq	.LBB4_11
.Ltmp24:
@ %bb.1:
	@DEBUG_VALUE: CLK_SetModuleClock:u32sel <- 0
	@DEBUG_VALUE: CLK_SetModuleClock:u32div <- 0
	@DEBUG_VALUE: CLK_SetModuleClock:u32ClkDiv <- $r2
	@DEBUG_VALUE: CLK_SetModuleClock:u32ClkSrc <- $r1
	@DEBUG_VALUE: CLK_SetModuleClock:u32ModuleIdx <- $r0
	.loc	2 512 19 is_stmt 1              @ Library/StdDriver/src/clk.c:512:19
	ldr	r3, [r12, #-44]
	.loc	2 0 0 is_stmt 0                 @ Library/StdDriver/src/clk.c:0:0
	ubfx	r4, r0, #18, #2
	.loc	2 512 27                        @ Library/StdDriver/src/clk.c:512:27
	uxtb	r3, r3
.Ltmp25:
	.loc	2 512 13                        @ Library/StdDriver/src/clk.c:512:13
	cmp	r3, #1
	bne	.LBB4_6
.Ltmp26:
@ %bb.2:
	@DEBUG_VALUE: CLK_SetModuleClock:u32sel <- 0
	@DEBUG_VALUE: CLK_SetModuleClock:u32div <- 0
	@DEBUG_VALUE: CLK_SetModuleClock:u32ClkDiv <- $r2
	@DEBUG_VALUE: CLK_SetModuleClock:u32ClkSrc <- $r1
	@DEBUG_VALUE: CLK_SetModuleClock:u32ModuleIdx <- $r0
	.loc	2 0 13                          @ Library/StdDriver/src/clk.c:0:13
	and	r5, r0, #31
.Ltmp27:
	.loc	2 514 50 is_stmt 1              @ Library/StdDriver/src/clk.c:514:50
	cmp	r5, #31
.Ltmp28:
	.loc	2 0 0 is_stmt 0                 @ Library/StdDriver/src/clk.c:0:0
	add.w	r3, r12, #8
.Ltmp29:
	.loc	2 514 50                        @ Library/StdDriver/src/clk.c:514:50
	it	eq
	cmpeq	r4, #2
	beq	.LBB4_10
.Ltmp30:
@ %bb.3:
	@DEBUG_VALUE: CLK_SetModuleClock:u32sel <- 0
	@DEBUG_VALUE: CLK_SetModuleClock:u32div <- 0
	@DEBUG_VALUE: CLK_SetModuleClock:u32ClkDiv <- $r2
	@DEBUG_VALUE: CLK_SetModuleClock:u32ClkSrc <- $r1
	@DEBUG_VALUE: CLK_SetModuleClock:u32ModuleIdx <- $r0
	.loc	2 514 44                        @ Library/StdDriver/src/clk.c:514:44
	eor	r6, r4, #2
	eor	r5, r5, #29
.Ltmp31:
	.loc	2 518 55 is_stmt 1              @ Library/StdDriver/src/clk.c:518:55
	orrs	r5, r6
	it	ne
	addne.w	r3, r12, #12
	cmp	r4, #2
	beq	.LBB4_10
.Ltmp32:
@ %bb.4:
	@DEBUG_VALUE: CLK_SetModuleClock:u32sel <- 0
	@DEBUG_VALUE: CLK_SetModuleClock:u32div <- 0
	@DEBUG_VALUE: CLK_SetModuleClock:u32ClkDiv <- $r2
	@DEBUG_VALUE: CLK_SetModuleClock:u32ClkSrc <- $r1
	@DEBUG_VALUE: CLK_SetModuleClock:u32ModuleIdx <- $r0
	.loc	2 526 22                        @ Library/StdDriver/src/clk.c:526:22
	cmp	r4, #3
	beq	.LBB4_8
.Ltmp33:
.LBB4_5:
	@DEBUG_VALUE: CLK_SetModuleClock:u32sel <- 0
	@DEBUG_VALUE: CLK_SetModuleClock:u32div <- 0
	@DEBUG_VALUE: CLK_SetModuleClock:u32ClkDiv <- $r2
	@DEBUG_VALUE: CLK_SetModuleClock:u32ClkSrc <- $r1
	@DEBUG_VALUE: CLK_SetModuleClock:u32ModuleIdx <- $r0
	.loc	2 0 0 is_stmt 0                 @ Library/StdDriver/src/clk.c:0:0
	orr.w	r3, r12, r4, lsl #2
.Ltmp34:
	@DEBUG_VALUE: CLK_SetModuleClock:u32div <- $r3
	b	.LBB4_10
.Ltmp35:
.LBB4_6:
	@DEBUG_VALUE: CLK_SetModuleClock:u32sel <- 0
	@DEBUG_VALUE: CLK_SetModuleClock:u32div <- 0
	@DEBUG_VALUE: CLK_SetModuleClock:u32ClkDiv <- $r2
	@DEBUG_VALUE: CLK_SetModuleClock:u32ClkSrc <- $r1
	@DEBUG_VALUE: CLK_SetModuleClock:u32ModuleIdx <- $r0
	.loc	2 538 16 is_stmt 1              @ Library/StdDriver/src/clk.c:538:16
	cmp	r4, #2
	beq	.LBB4_9
.Ltmp36:
@ %bb.7:
	@DEBUG_VALUE: CLK_SetModuleClock:u32sel <- 0
	@DEBUG_VALUE: CLK_SetModuleClock:u32div <- 0
	@DEBUG_VALUE: CLK_SetModuleClock:u32ClkDiv <- $r2
	@DEBUG_VALUE: CLK_SetModuleClock:u32ClkSrc <- $r1
	@DEBUG_VALUE: CLK_SetModuleClock:u32ModuleIdx <- $r0
	cmp	r4, #3
	bne	.LBB4_5
.Ltmp37:
.LBB4_8:
	@DEBUG_VALUE: CLK_SetModuleClock:u32sel <- 0
	@DEBUG_VALUE: CLK_SetModuleClock:u32div <- 0
	@DEBUG_VALUE: CLK_SetModuleClock:u32ClkDiv <- $r2
	@DEBUG_VALUE: CLK_SetModuleClock:u32ClkSrc <- $r1
	@DEBUG_VALUE: CLK_SetModuleClock:u32ModuleIdx <- $r0
	.loc	2 0 16 is_stmt 0                @ Library/StdDriver/src/clk.c:0:16
	add.w	r3, r12, #16
	b	.LBB4_10
.Ltmp38:
.LBB4_9:
	@DEBUG_VALUE: CLK_SetModuleClock:u32sel <- 0
	@DEBUG_VALUE: CLK_SetModuleClock:u32div <- 0
	@DEBUG_VALUE: CLK_SetModuleClock:u32ClkDiv <- $r2
	@DEBUG_VALUE: CLK_SetModuleClock:u32ClkSrc <- $r1
	@DEBUG_VALUE: CLK_SetModuleClock:u32ModuleIdx <- $r0
	add.w	r3, r12, #12
.Ltmp39:
.LBB4_10:
	@DEBUG_VALUE: CLK_SetModuleClock:u32sel <- 0
	@DEBUG_VALUE: CLK_SetModuleClock:u32ClkDiv <- $r2
	@DEBUG_VALUE: CLK_SetModuleClock:u32ClkSrc <- $r1
	@DEBUG_VALUE: CLK_SetModuleClock:u32ModuleIdx <- $r0
	@DEBUG_VALUE: CLK_SetModuleClock:u32div <- $r3
	.loc	2 553 24 is_stmt 1              @ Library/StdDriver/src/clk.c:553:24
	ldr	r4, [r3]
	.loc	2 553 76 is_stmt 0              @ Library/StdDriver/src/clk.c:553:76
	ubfx	r5, r0, #5, #5
	.loc	2 553 73                        @ Library/StdDriver/src/clk.c:553:73
	lsl.w	r6, lr, r5
	.loc	2 553 36                        @ Library/StdDriver/src/clk.c:553:36
	bic.w	r6, r4, r6
	.loc	2 553 111                       @ Library/StdDriver/src/clk.c:553:111
	orrs	r2, r6
.Ltmp40:
	@DEBUG_VALUE: CLK_SetModuleClock:u32ClkDiv <- [DW_OP_LLVM_entry_value 1] $r2
	.loc	2 553 21                        @ Library/StdDriver/src/clk.c:553:21
	str	r2, [r3]
.Ltmp41:
.LBB4_11:
	@DEBUG_VALUE: CLK_SetModuleClock:u32sel <- 0
	@DEBUG_VALUE: CLK_SetModuleClock:u32ClkSrc <- $r1
	@DEBUG_VALUE: CLK_SetModuleClock:u32ModuleIdx <- $r0
	.loc	2 556 8 is_stmt 1               @ Library/StdDriver/src/clk.c:556:8
	ubfx	r2, r0, #25, #3
.Ltmp42:
	.loc	2 556 8 is_stmt 0               @ Library/StdDriver/src/clk.c:556:8
	cmp	r2, #0
	.loc	2 563 1 is_stmt 1               @ Library/StdDriver/src/clk.c:563:1
	it	eq
	.loc	2 563 1 epilogue_begin is_stmt 0 @ Library/StdDriver/src/clk.c:563:1
	popeq	{r4, r5, r6, pc}
.Ltmp43:
.LBB4_12:
	@DEBUG_VALUE: CLK_SetModuleClock:u32sel <- 0
	@DEBUG_VALUE: CLK_SetModuleClock:u32ClkSrc <- $r1
	@DEBUG_VALUE: CLK_SetModuleClock:u32ModuleIdx <- $r0
	.loc	2 559 75 is_stmt 1              @ Library/StdDriver/src/clk.c:559:75
	ubfx	r3, r0, #28, #2
	.loc	2 559 42 is_stmt 0              @ Library/StdDriver/src/clk.c:559:42
	add.w	r3, r12, r3, lsl #2
.Ltmp44:
	@DEBUG_VALUE: CLK_SetModuleClock:u32sel <- [DW_OP_plus_uconst 4294967280, DW_OP_stack_value] $r3
	.loc	2 561 24 is_stmt 1              @ Library/StdDriver/src/clk.c:561:24
	ldr	r6, [r3, #-16]
	.loc	2 561 76 is_stmt 0              @ Library/StdDriver/src/clk.c:561:76
	ubfx	r0, r0, #20, #5
.Ltmp45:
	@DEBUG_VALUE: CLK_SetModuleClock:u32ModuleIdx <- [DW_OP_LLVM_entry_value 1] $r0
	.loc	2 561 73                        @ Library/StdDriver/src/clk.c:561:73
	lsl.w	r0, r2, r0
	.loc	2 561 36                        @ Library/StdDriver/src/clk.c:561:36
	bic.w	r0, r6, r0
	.loc	2 561 111                       @ Library/StdDriver/src/clk.c:561:111
	orrs	r0, r1
	.loc	2 561 21                        @ Library/StdDriver/src/clk.c:561:21
	str	r0, [r3, #-16]
.Ltmp46:
	.loc	2 563 1 epilogue_begin is_stmt 1 @ Library/StdDriver/src/clk.c:563:1
	pop	{r4, r5, r6, pc}
.Ltmp47:
.Lfunc_end4:
	.size	CLK_SetModuleClock, .Lfunc_end4-CLK_SetModuleClock
	.cfi_endproc
	.cantunwind
	.fnend
                                        @ -- End function
	.hidden	CLK_PowerDown                   @ -- Begin function CLK_PowerDown
	.globl	CLK_PowerDown
	.p2align	2
	.type	CLK_PowerDown,%function
	.code	16                              @ @CLK_PowerDown
	.thumb_func
CLK_PowerDown:
.Lfunc_begin5:
	.loc	2 75 0                          @ Library/StdDriver/src/clk.c:75:0
	.fnstart
	.cfi_startproc
@ %bb.0:
	movw	r0, #60688
	movt	r0, #57344
.Ltmp48:
	.loc	2 79 14 prologue_end            @ Library/StdDriver/src/clk.c:79:14
	ldr	r1, [r0]
	orr	r1, r1, #4
	str	r1, [r0]
	movs	r0, #240
	movt	r0, #16384
	.loc	2 82 17                         @ Library/StdDriver/src/clk.c:82:17
	ldr.w	r1, [r0, #272]
	orr	r1, r1, #128
	str.w	r1, [r0, #272]
	.loc	2 85 27                         @ Library/StdDriver/src/clk.c:85:27
	ldr	r1, [r0]
.Ltmp49:
	@DEBUG_VALUE: CLK_PowerDown:u32HIRCTRIMCTL <- $r1
	.loc	2 88 18                         @ Library/StdDriver/src/clk.c:88:18
	ldr	r2, [r0]
	bic	r2, r2, #3
	str	r2, [r0]
	.loc	2 91 5                          @ Library/StdDriver/src/clk.c:91:5
	wfi
	.loc	2 94 18                         @ Library/StdDriver/src/clk.c:94:18
	str	r1, [r0]
	.loc	2 95 1                          @ Library/StdDriver/src/clk.c:95:1
	bx	lr
.Ltmp50:
.Lfunc_end5:
	.size	CLK_PowerDown, .Lfunc_end5-CLK_PowerDown
	.cfi_endproc
	.cantunwind
	.fnend
                                        @ -- End function
	.hidden	CLK_Idle                        @ -- Begin function CLK_Idle
	.globl	CLK_Idle
	.p2align	2
	.type	CLK_Idle,%function
	.code	16                              @ @CLK_Idle
	.thumb_func
CLK_Idle:
.Lfunc_begin6:
	.loc	2 105 0                         @ Library/StdDriver/src/clk.c:105:0
	.fnstart
	.cfi_startproc
@ %bb.0:
	movw	r0, #60688
	movt	r0, #57344
.Ltmp51:
	.loc	2 107 14 prologue_end           @ Library/StdDriver/src/clk.c:107:14
	ldr	r1, [r0]
	bic	r1, r1, #4
	str	r1, [r0]
	movw	r0, #512
	movt	r0, #16384
	.loc	2 110 17                        @ Library/StdDriver/src/clk.c:110:17
	ldr	r1, [r0]
	bic	r1, r1, #128
	str	r1, [r0]
	.loc	2 113 5                         @ Library/StdDriver/src/clk.c:113:5
	wfi
	.loc	2 114 1                         @ Library/StdDriver/src/clk.c:114:1
	bx	lr
.Ltmp52:
.Lfunc_end6:
	.size	CLK_Idle, .Lfunc_end6-CLK_Idle
	.cfi_endproc
	.cantunwind
	.fnend
                                        @ -- End function
	.hidden	CLK_GetHXTFreq                  @ -- Begin function CLK_GetHXTFreq
	.globl	CLK_GetHXTFreq
	.p2align	2
	.type	CLK_GetHXTFreq,%function
	.code	16                              @ @CLK_GetHXTFreq
	.thumb_func
CLK_GetHXTFreq:
.Lfunc_begin7:
	.loc	2 123 0                         @ Library/StdDriver/src/clk.c:123:0
	.fnstart
	.cfi_startproc
@ %bb.0:
	movw	r0, #512
	movt	r0, #16384
.Ltmp53:
	.loc	2 126 14 prologue_end           @ Library/StdDriver/src/clk.c:126:14
	ldr	r0, [r0]
	movw	r1, #6912
	.loc	2 126 21 is_stmt 0              @ Library/StdDriver/src/clk.c:126:21
	and	r0, r0, #1
	rsbs	r0, r0, #0
	movt	r1, #183
	ands	r0, r1
.Ltmp54:
	@DEBUG_VALUE: CLK_GetHXTFreq:u32Freq <- $r0
	.loc	2 135 5 is_stmt 1               @ Library/StdDriver/src/clk.c:135:5
	bx	lr
.Ltmp55:
.Lfunc_end7:
	.size	CLK_GetHXTFreq, .Lfunc_end7-CLK_GetHXTFreq
	.cfi_endproc
	.cantunwind
	.fnend
                                        @ -- End function
	.hidden	CLK_GetLXTFreq                  @ -- Begin function CLK_GetLXTFreq
	.globl	CLK_GetLXTFreq
	.p2align	2
	.type	CLK_GetLXTFreq,%function
	.code	16                              @ @CLK_GetLXTFreq
	.thumb_func
CLK_GetLXTFreq:
.Lfunc_begin8:
	.loc	2 146 0                         @ Library/StdDriver/src/clk.c:146:0
	.fnstart
	.cfi_startproc
@ %bb.0:
	movw	r0, #512
	movt	r0, #16384
.Ltmp56:
	.loc	2 148 14 prologue_end           @ Library/StdDriver/src/clk.c:148:14
	ldr	r0, [r0]
	mov.w	r1, #32768
	and.w	r0, r1, r0, lsl #14
.Ltmp57:
	@DEBUG_VALUE: CLK_GetLXTFreq:u32Freq <- $r0
	.loc	2 157 5                         @ Library/StdDriver/src/clk.c:157:5
	bx	lr
.Ltmp58:
.Lfunc_end8:
	.size	CLK_GetLXTFreq, .Lfunc_end8-CLK_GetLXTFreq
	.cfi_endproc
	.cantunwind
	.fnend
                                        @ -- End function
	.hidden	CLK_GetPCLK0Freq                @ -- Begin function CLK_GetPCLK0Freq
	.globl	CLK_GetPCLK0Freq
	.p2align	2
	.type	CLK_GetPCLK0Freq,%function
	.code	16                              @ @CLK_GetPCLK0Freq
	.thumb_func
CLK_GetPCLK0Freq:
.Lfunc_begin9:
	.loc	2 167 0                         @ Library/StdDriver/src/clk.c:167:0
	.fnstart
	.cfi_startproc
@ %bb.0:
	.save	{r4, lr}
	push	{r4, lr}
	.cfi_def_cfa_offset 8
	.cfi_offset lr, -4
	.cfi_offset r4, -8
	movw	r4, #564
	movt	r4, #16384
.Ltmp59:
	.loc	2 169 5 prologue_end            @ Library/StdDriver/src/clk.c:169:5
	bl	SystemCoreClockUpdate
.Ltmp60:
	.loc	2 171 14                        @ Library/StdDriver/src/clk.c:171:14
	ldr	r0, [r4]
.Ltmp61:
	.loc	2 171 8 is_stmt 0               @ Library/StdDriver/src/clk.c:171:8
	lsls	r0, r0, #29
	beq	.LBB9_3
@ %bb.1:
.Ltmp62:
	.loc	2 175 19 is_stmt 1              @ Library/StdDriver/src/clk.c:175:19
	ldr	r0, [r4]
	.loc	2 175 27 is_stmt 0              @ Library/StdDriver/src/clk.c:175:27
	and	r0, r0, #7
.Ltmp63:
	.loc	2 175 13                        @ Library/StdDriver/src/clk.c:175:13
	cmp	r0, #1
	bne	.LBB9_4
@ %bb.2:
.Ltmp64:
	.loc	2 177 19 is_stmt 1              @ Library/StdDriver/src/clk.c:177:19
	movw	r0, :lower16:SystemCoreClock
	movt	r0, :upper16:SystemCoreClock
	ldr	r0, [r0]
	.loc	2 177 35 is_stmt 0              @ Library/StdDriver/src/clk.c:177:35
	lsrs	r0, r0, #1
.Ltmp65:
	@DEBUG_VALUE: CLK_GetPCLK0Freq:u32Freq <- $r0
	@DEBUG_VALUE: CLK_GetPCLK0Freq:u32Freq <- $r0
	.loc	2 196 5 epilogue_begin is_stmt 1 @ Library/StdDriver/src/clk.c:196:5
	pop	{r4, pc}
.Ltmp66:
.LBB9_3:
	.loc	2 173 19                        @ Library/StdDriver/src/clk.c:173:19
	movw	r0, :lower16:SystemCoreClock
	movt	r0, :upper16:SystemCoreClock
	ldr	r0, [r0]
.Ltmp67:
	@DEBUG_VALUE: CLK_GetPCLK0Freq:u32Freq <- $r0
	@DEBUG_VALUE: CLK_GetPCLK0Freq:u32Freq <- $r0
	.loc	2 196 5 epilogue_begin          @ Library/StdDriver/src/clk.c:196:5
	pop	{r4, pc}
.Ltmp68:
.LBB9_4:
	.loc	2 179 19                        @ Library/StdDriver/src/clk.c:179:19
	ldr	r0, [r4]
	.loc	2 179 27 is_stmt 0              @ Library/StdDriver/src/clk.c:179:27
	and	r0, r0, #7
.Ltmp69:
	.loc	2 179 13                        @ Library/StdDriver/src/clk.c:179:13
	cmp	r0, #2
	bne	.LBB9_6
@ %bb.5:
.Ltmp70:
	.loc	2 181 19 is_stmt 1              @ Library/StdDriver/src/clk.c:181:19
	movw	r0, :lower16:SystemCoreClock
	movt	r0, :upper16:SystemCoreClock
	ldr	r0, [r0]
	.loc	2 181 35 is_stmt 0              @ Library/StdDriver/src/clk.c:181:35
	lsrs	r0, r0, #2
.Ltmp71:
	@DEBUG_VALUE: CLK_GetPCLK0Freq:u32Freq <- $r0
	@DEBUG_VALUE: CLK_GetPCLK0Freq:u32Freq <- $r0
	.loc	2 196 5 epilogue_begin is_stmt 1 @ Library/StdDriver/src/clk.c:196:5
	pop	{r4, pc}
.Ltmp72:
.LBB9_6:
	.loc	2 183 19                        @ Library/StdDriver/src/clk.c:183:19
	ldr	r0, [r4]
	.loc	2 183 27 is_stmt 0              @ Library/StdDriver/src/clk.c:183:27
	and	r0, r0, #7
.Ltmp73:
	.loc	2 183 13                        @ Library/StdDriver/src/clk.c:183:13
	cmp	r0, #3
	bne	.LBB9_8
@ %bb.7:
.Ltmp74:
	.loc	2 185 19 is_stmt 1              @ Library/StdDriver/src/clk.c:185:19
	movw	r0, :lower16:SystemCoreClock
	movt	r0, :upper16:SystemCoreClock
	ldr	r0, [r0]
	.loc	2 185 35 is_stmt 0              @ Library/StdDriver/src/clk.c:185:35
	lsrs	r0, r0, #3
.Ltmp75:
	@DEBUG_VALUE: CLK_GetPCLK0Freq:u32Freq <- $r0
	@DEBUG_VALUE: CLK_GetPCLK0Freq:u32Freq <- $r0
	.loc	2 196 5 epilogue_begin is_stmt 1 @ Library/StdDriver/src/clk.c:196:5
	pop	{r4, pc}
.Ltmp76:
.LBB9_8:
	.loc	2 187 19                        @ Library/StdDriver/src/clk.c:187:19
	ldr	r0, [r4]
	.loc	2 187 27 is_stmt 0              @ Library/StdDriver/src/clk.c:187:27
	and	r1, r0, #7
	.loc	2 0 0                           @ Library/StdDriver/src/clk.c:0:0
	movw	r0, :lower16:SystemCoreClock
	movt	r0, :upper16:SystemCoreClock
	ldr	r0, [r0]
.Ltmp77:
	.loc	2 187 13                        @ Library/StdDriver/src/clk.c:187:13
	cmp	r1, #4
	it	eq
	lsreq	r0, r0, #4
.Ltmp78:
	@DEBUG_VALUE: CLK_GetPCLK0Freq:u32Freq <- $r0
	.loc	2 196 5 epilogue_begin is_stmt 1 @ Library/StdDriver/src/clk.c:196:5
	pop	{r4, pc}
.Ltmp79:
.Lfunc_end9:
	.size	CLK_GetPCLK0Freq, .Lfunc_end9-CLK_GetPCLK0Freq
	.cfi_endproc
	.cantunwind
	.fnend
                                        @ -- End function
	.hidden	CLK_GetPCLK1Freq                @ -- Begin function CLK_GetPCLK1Freq
	.globl	CLK_GetPCLK1Freq
	.p2align	2
	.type	CLK_GetPCLK1Freq,%function
	.code	16                              @ @CLK_GetPCLK1Freq
	.thumb_func
CLK_GetPCLK1Freq:
.Lfunc_begin10:
	.loc	2 207 0                         @ Library/StdDriver/src/clk.c:207:0
	.fnstart
	.cfi_startproc
@ %bb.0:
	.save	{r4, lr}
	push	{r4, lr}
	.cfi_def_cfa_offset 8
	.cfi_offset lr, -4
	.cfi_offset r4, -8
	movw	r4, #564
	movt	r4, #16384
.Ltmp80:
	.loc	2 209 5 prologue_end            @ Library/StdDriver/src/clk.c:209:5
	bl	SystemCoreClockUpdate
.Ltmp81:
	.loc	2 211 14                        @ Library/StdDriver/src/clk.c:211:14
	ldr	r0, [r4]
.Ltmp82:
	.loc	2 211 8 is_stmt 0               @ Library/StdDriver/src/clk.c:211:8
	tst.w	r0, #112
	beq	.LBB10_3
@ %bb.1:
.Ltmp83:
	.loc	2 215 19 is_stmt 1              @ Library/StdDriver/src/clk.c:215:19
	ldr	r0, [r4]
	.loc	2 215 27 is_stmt 0              @ Library/StdDriver/src/clk.c:215:27
	and	r0, r0, #112
.Ltmp84:
	.loc	2 215 13                        @ Library/StdDriver/src/clk.c:215:13
	cmp	r0, #16
	bne	.LBB10_4
@ %bb.2:
.Ltmp85:
	.loc	2 217 19 is_stmt 1              @ Library/StdDriver/src/clk.c:217:19
	movw	r0, :lower16:SystemCoreClock
	movt	r0, :upper16:SystemCoreClock
	ldr	r0, [r0]
	.loc	2 217 35 is_stmt 0              @ Library/StdDriver/src/clk.c:217:35
	lsrs	r0, r0, #1
.Ltmp86:
	@DEBUG_VALUE: CLK_GetPCLK1Freq:u32Freq <- $r0
	@DEBUG_VALUE: CLK_GetPCLK1Freq:u32Freq <- $r0
	.loc	2 236 5 epilogue_begin is_stmt 1 @ Library/StdDriver/src/clk.c:236:5
	pop	{r4, pc}
.Ltmp87:
.LBB10_3:
	.loc	2 213 19                        @ Library/StdDriver/src/clk.c:213:19
	movw	r0, :lower16:SystemCoreClock
	movt	r0, :upper16:SystemCoreClock
	ldr	r0, [r0]
.Ltmp88:
	@DEBUG_VALUE: CLK_GetPCLK1Freq:u32Freq <- $r0
	@DEBUG_VALUE: CLK_GetPCLK1Freq:u32Freq <- $r0
	.loc	2 236 5 epilogue_begin          @ Library/StdDriver/src/clk.c:236:5
	pop	{r4, pc}
.Ltmp89:
.LBB10_4:
	.loc	2 219 19                        @ Library/StdDriver/src/clk.c:219:19
	ldr	r0, [r4]
	.loc	2 219 27 is_stmt 0              @ Library/StdDriver/src/clk.c:219:27
	and	r0, r0, #112
.Ltmp90:
	.loc	2 219 13                        @ Library/StdDriver/src/clk.c:219:13
	cmp	r0, #32
	bne	.LBB10_6
@ %bb.5:
.Ltmp91:
	.loc	2 221 19 is_stmt 1              @ Library/StdDriver/src/clk.c:221:19
	movw	r0, :lower16:SystemCoreClock
	movt	r0, :upper16:SystemCoreClock
	ldr	r0, [r0]
	.loc	2 221 35 is_stmt 0              @ Library/StdDriver/src/clk.c:221:35
	lsrs	r0, r0, #2
.Ltmp92:
	@DEBUG_VALUE: CLK_GetPCLK1Freq:u32Freq <- $r0
	@DEBUG_VALUE: CLK_GetPCLK1Freq:u32Freq <- $r0
	.loc	2 236 5 epilogue_begin is_stmt 1 @ Library/StdDriver/src/clk.c:236:5
	pop	{r4, pc}
.Ltmp93:
.LBB10_6:
	.loc	2 223 19                        @ Library/StdDriver/src/clk.c:223:19
	ldr	r0, [r4]
	.loc	2 223 27 is_stmt 0              @ Library/StdDriver/src/clk.c:223:27
	and	r0, r0, #112
.Ltmp94:
	.loc	2 223 13                        @ Library/StdDriver/src/clk.c:223:13
	cmp	r0, #48
	bne	.LBB10_8
@ %bb.7:
.Ltmp95:
	.loc	2 225 19 is_stmt 1              @ Library/StdDriver/src/clk.c:225:19
	movw	r0, :lower16:SystemCoreClock
	movt	r0, :upper16:SystemCoreClock
	ldr	r0, [r0]
	.loc	2 225 35 is_stmt 0              @ Library/StdDriver/src/clk.c:225:35
	lsrs	r0, r0, #3
.Ltmp96:
	@DEBUG_VALUE: CLK_GetPCLK1Freq:u32Freq <- $r0
	@DEBUG_VALUE: CLK_GetPCLK1Freq:u32Freq <- $r0
	.loc	2 236 5 epilogue_begin is_stmt 1 @ Library/StdDriver/src/clk.c:236:5
	pop	{r4, pc}
.Ltmp97:
.LBB10_8:
	.loc	2 227 19                        @ Library/StdDriver/src/clk.c:227:19
	ldr	r0, [r4]
	.loc	2 227 27 is_stmt 0              @ Library/StdDriver/src/clk.c:227:27
	and	r1, r0, #112
	.loc	2 0 0                           @ Library/StdDriver/src/clk.c:0:0
	movw	r0, :lower16:SystemCoreClock
	movt	r0, :upper16:SystemCoreClock
	ldr	r0, [r0]
.Ltmp98:
	.loc	2 227 13                        @ Library/StdDriver/src/clk.c:227:13
	cmp	r1, #64
	it	eq
	lsreq	r0, r0, #4
.Ltmp99:
	@DEBUG_VALUE: CLK_GetPCLK1Freq:u32Freq <- $r0
	.loc	2 236 5 epilogue_begin is_stmt 1 @ Library/StdDriver/src/clk.c:236:5
	pop	{r4, pc}
.Ltmp100:
.Lfunc_end10:
	.size	CLK_GetPCLK1Freq, .Lfunc_end10-CLK_GetPCLK1Freq
	.cfi_endproc
	.cantunwind
	.fnend
                                        @ -- End function
	.hidden	CLK_GetHCLKFreq                 @ -- Begin function CLK_GetHCLKFreq
	.globl	CLK_GetHCLKFreq
	.p2align	2
	.type	CLK_GetHCLKFreq,%function
	.code	16                              @ @CLK_GetHCLKFreq
	.thumb_func
CLK_GetHCLKFreq:
.Lfunc_begin11:
	.loc	2 247 0                         @ Library/StdDriver/src/clk.c:247:0
	.fnstart
	.cfi_startproc
@ %bb.0:
	.save	{r7, lr}
	push	{r7, lr}
	.cfi_def_cfa_offset 8
	.cfi_offset lr, -4
	.cfi_offset r7, -8
.Ltmp101:
	.loc	2 248 5 prologue_end            @ Library/StdDriver/src/clk.c:248:5
	bl	SystemCoreClockUpdate
.Ltmp102:
	.loc	2 249 12                        @ Library/StdDriver/src/clk.c:249:12
	movw	r0, :lower16:SystemCoreClock
	movt	r0, :upper16:SystemCoreClock
	ldr	r0, [r0]
	.loc	2 249 5 epilogue_begin is_stmt 0 @ Library/StdDriver/src/clk.c:249:5
	pop	{r7, pc}
.Ltmp103:
.Lfunc_end11:
	.size	CLK_GetHCLKFreq, .Lfunc_end11-CLK_GetHCLKFreq
	.cfi_endproc
	.cantunwind
	.fnend
                                        @ -- End function
	.hidden	CLK_GetCPUFreq                  @ -- Begin function CLK_GetCPUFreq
	.globl	CLK_GetCPUFreq
	.p2align	2
	.type	CLK_GetCPUFreq,%function
	.code	16                              @ @CLK_GetCPUFreq
	.thumb_func
CLK_GetCPUFreq:
.Lfunc_begin12:
	.loc	2 260 0 is_stmt 1               @ Library/StdDriver/src/clk.c:260:0
	.fnstart
	.cfi_startproc
@ %bb.0:
	.save	{r7, lr}
	push	{r7, lr}
	.cfi_def_cfa_offset 8
	.cfi_offset lr, -4
	.cfi_offset r7, -8
.Ltmp104:
	.loc	2 261 5 prologue_end            @ Library/StdDriver/src/clk.c:261:5
	bl	SystemCoreClockUpdate
.Ltmp105:
	.loc	2 262 12                        @ Library/StdDriver/src/clk.c:262:12
	movw	r0, :lower16:SystemCoreClock
	movt	r0, :upper16:SystemCoreClock
	ldr	r0, [r0]
	.loc	2 262 5 epilogue_begin is_stmt 0 @ Library/StdDriver/src/clk.c:262:5
	pop	{r7, pc}
.Ltmp106:
.Lfunc_end12:
	.size	CLK_GetCPUFreq, .Lfunc_end12-CLK_GetCPUFreq
	.cfi_endproc
	.cantunwind
	.fnend
                                        @ -- End function
	.hidden	CLK_SetCoreClock                @ -- Begin function CLK_SetCoreClock
	.globl	CLK_SetCoreClock
	.p2align	2
	.type	CLK_SetCoreClock,%function
	.code	16                              @ @CLK_SetCoreClock
	.thumb_func
CLK_SetCoreClock:
.Lfunc_begin13:
	.loc	2 274 0 is_stmt 1               @ Library/StdDriver/src/clk.c:274:0
	.fnstart
	.cfi_startproc
@ %bb.0:
	@DEBUG_VALUE: CLK_SetCoreClock:u32Hclk <- $r0
	.save	{r4, r5, r6, r7, r8, r9, lr}
	push.w	{r4, r5, r6, r7, r8, r9, lr}
	.cfi_def_cfa_offset 28
	.cfi_offset lr, -4
	.cfi_offset r9, -8
	.cfi_offset r8, -12
	.cfi_offset r7, -16
	.cfi_offset r6, -20
	.cfi_offset r5, -24
	.cfi_offset r4, -28
	.pad	#4
	sub	sp, #4
	.cfi_def_cfa_offset 32
	movw	r5, #592
	movt	r5, #16384
.Ltmp107:
	.loc	2 278 23 prologue_end           @ Library/StdDriver/src/clk.c:278:23
	ldr.w	r9, [r5]
.Ltmp108:
	@DEBUG_VALUE: CLK_SetCoreClock:u32HIRCSTB <- [DW_OP_constu 16, DW_OP_and, DW_OP_stack_value] $r9
	.loc	2 287 17                        @ Library/StdDriver/src/clk.c:287:17
	ldr	r2, [r5, #-80]
.Ltmp109:
	.loc	2 970 30                        @ Library/StdDriver/src/clk.c:970:30
	movw	r8, :lower16:SystemCoreClock
.Ltmp110:
	.loc	2 287 17                        @ Library/StdDriver/src/clk.c:287:17
	orr	r2, r2, #4
	str	r2, [r5, #-80]
.Ltmp111:
	@DEBUG_VALUE: CLK_WaitClockReady:u32ClkMask <- 16
	.loc	2 970 30                        @ Library/StdDriver/src/clk.c:970:30
	movt	r8, :upper16:SystemCoreClock
	movw	r1, #45056
	ldr.w	r2, [r8]
	movt	r1, #2929
	.loc	2 973 22                        @ Library/StdDriver/src/clk.c:973:22
	movw	r7, :lower16:g_CLK_i32ErrCode
.Ltmp112:
	.loc	2 281 8                         @ Library/StdDriver/src/clk.c:281:8
	cmp	r0, r1
	it	lo
	movlo	r1, r0
.Ltmp113:
	@DEBUG_VALUE: CLK_SetCoreClock:u32Hclk <- $r1
	.loc	2 970 46                        @ Library/StdDriver/src/clk.c:970:46
	lsrs	r0, r2, #1
.Ltmp114:
	@DEBUG_VALUE: CLK_WaitClockReady:u32Ret <- 1
	@DEBUG_VALUE: CLK_WaitClockReady:u32TimeOutCnt <- $r0
	@DEBUG_VALUE: CLK_WaitClockReady:u32ClkMask <- 16
	.loc	2 973 22                        @ Library/StdDriver/src/clk.c:973:22
	movt	r7, :upper16:g_CLK_i32ErrCode
	movs	r2, #0
	str	r2, [r7]
.Ltmp115:
.LBB13_1:                               @ =>This Inner Loop Header: Depth=1
	@DEBUG_VALUE: CLK_WaitClockReady:u32TimeOutCnt <- $r0
	@DEBUG_VALUE: CLK_WaitClockReady:u32Ret <- 1
	@DEBUG_VALUE: CLK_SetCoreClock:u32Hclk <- $r1
	@DEBUG_VALUE: CLK_WaitClockReady:u32ClkMask <- 16
	@DEBUG_VALUE: CLK_SetCoreClock:u32HIRCSTB <- [DW_OP_constu 16, DW_OP_and, DW_OP_stack_value] $r9
	@DEBUG_VALUE: CLK_WaitClockReady:u32TimeOutCnt <- $r0
	.loc	2 974 17                        @ Library/StdDriver/src/clk.c:974:17
	ldr	r2, [r5]
	.loc	2 974 5 is_stmt 0               @ Library/StdDriver/src/clk.c:974:5
	lsls	r2, r2, #27
	bmi	.LBB13_10
.Ltmp116:
@ %bb.2:                                @   in Loop: Header=BB13_1 Depth=1
	@DEBUG_VALUE: CLK_WaitClockReady:u32TimeOutCnt <- $r0
	@DEBUG_VALUE: CLK_WaitClockReady:u32Ret <- 1
	@DEBUG_VALUE: CLK_SetCoreClock:u32Hclk <- $r1
	@DEBUG_VALUE: CLK_WaitClockReady:u32ClkMask <- 16
	@DEBUG_VALUE: CLK_SetCoreClock:u32HIRCSTB <- [DW_OP_constu 16, DW_OP_and, DW_OP_stack_value] $r9
	@DEBUG_VALUE: CLK_WaitClockReady:u32TimeOutCnt <- [DW_OP_constu 1, DW_OP_minus, DW_OP_stack_value] $r0
	.loc	2 976 12 is_stmt 1              @ Library/StdDriver/src/clk.c:976:12
	cmp	r0, #1
	beq	.LBB13_11
.Ltmp117:
@ %bb.3:                                @   in Loop: Header=BB13_1 Depth=1
	@DEBUG_VALUE: CLK_WaitClockReady:u32TimeOutCnt <- [DW_OP_constu 1, DW_OP_minus, DW_OP_stack_value] $r0
	@DEBUG_VALUE: CLK_WaitClockReady:u32Ret <- 1
	@DEBUG_VALUE: CLK_SetCoreClock:u32Hclk <- $r1
	@DEBUG_VALUE: CLK_WaitClockReady:u32ClkMask <- 16
	@DEBUG_VALUE: CLK_SetCoreClock:u32HIRCSTB <- [DW_OP_constu 16, DW_OP_and, DW_OP_stack_value] $r9
	@DEBUG_VALUE: CLK_WaitClockReady:u32TimeOutCnt <- [DW_OP_constu 1, DW_OP_minus, DW_OP_stack_value] $r0
	.loc	2 974 17                        @ Library/StdDriver/src/clk.c:974:17
	ldr	r2, [r5]
	.loc	2 974 5 is_stmt 0               @ Library/StdDriver/src/clk.c:974:5
	lsls	r2, r2, #27
	bmi	.LBB13_9
.Ltmp118:
@ %bb.4:                                @   in Loop: Header=BB13_1 Depth=1
	@DEBUG_VALUE: CLK_WaitClockReady:u32TimeOutCnt <- [DW_OP_constu 1, DW_OP_minus, DW_OP_stack_value] $r0
	@DEBUG_VALUE: CLK_WaitClockReady:u32Ret <- 1
	@DEBUG_VALUE: CLK_SetCoreClock:u32Hclk <- $r1
	@DEBUG_VALUE: CLK_WaitClockReady:u32ClkMask <- 16
	@DEBUG_VALUE: CLK_SetCoreClock:u32HIRCSTB <- [DW_OP_constu 16, DW_OP_and, DW_OP_stack_value] $r9
	@DEBUG_VALUE: CLK_WaitClockReady:u32TimeOutCnt <- [DW_OP_constu 2, DW_OP_minus, DW_OP_stack_value] $r0
	.loc	2 976 12 is_stmt 1              @ Library/StdDriver/src/clk.c:976:12
	cmp	r0, #2
	beq	.LBB13_11
.Ltmp119:
@ %bb.5:                                @   in Loop: Header=BB13_1 Depth=1
	@DEBUG_VALUE: CLK_WaitClockReady:u32TimeOutCnt <- [DW_OP_constu 2, DW_OP_minus, DW_OP_stack_value] $r0
	@DEBUG_VALUE: CLK_WaitClockReady:u32Ret <- 1
	@DEBUG_VALUE: CLK_SetCoreClock:u32Hclk <- $r1
	@DEBUG_VALUE: CLK_WaitClockReady:u32ClkMask <- 16
	@DEBUG_VALUE: CLK_SetCoreClock:u32HIRCSTB <- [DW_OP_constu 16, DW_OP_and, DW_OP_stack_value] $r9
	@DEBUG_VALUE: CLK_WaitClockReady:u32TimeOutCnt <- [DW_OP_constu 2, DW_OP_minus, DW_OP_stack_value] $r0
	.loc	2 974 17                        @ Library/StdDriver/src/clk.c:974:17
	ldr	r2, [r5]
	.loc	2 974 5 is_stmt 0               @ Library/StdDriver/src/clk.c:974:5
	lsls	r2, r2, #27
	bmi	.LBB13_9
.Ltmp120:
@ %bb.6:                                @   in Loop: Header=BB13_1 Depth=1
	@DEBUG_VALUE: CLK_WaitClockReady:u32TimeOutCnt <- [DW_OP_constu 2, DW_OP_minus, DW_OP_stack_value] $r0
	@DEBUG_VALUE: CLK_WaitClockReady:u32Ret <- 1
	@DEBUG_VALUE: CLK_SetCoreClock:u32Hclk <- $r1
	@DEBUG_VALUE: CLK_WaitClockReady:u32ClkMask <- 16
	@DEBUG_VALUE: CLK_SetCoreClock:u32HIRCSTB <- [DW_OP_constu 16, DW_OP_and, DW_OP_stack_value] $r9
	@DEBUG_VALUE: CLK_WaitClockReady:u32TimeOutCnt <- [DW_OP_constu 3, DW_OP_minus, DW_OP_stack_value] $r0
	.loc	2 976 12 is_stmt 1              @ Library/StdDriver/src/clk.c:976:12
	cmp	r0, #3
	beq	.LBB13_11
.Ltmp121:
@ %bb.7:                                @   in Loop: Header=BB13_1 Depth=1
	@DEBUG_VALUE: CLK_WaitClockReady:u32TimeOutCnt <- [DW_OP_constu 3, DW_OP_minus, DW_OP_stack_value] $r0
	@DEBUG_VALUE: CLK_WaitClockReady:u32Ret <- 1
	@DEBUG_VALUE: CLK_SetCoreClock:u32Hclk <- $r1
	@DEBUG_VALUE: CLK_WaitClockReady:u32ClkMask <- 16
	@DEBUG_VALUE: CLK_SetCoreClock:u32HIRCSTB <- [DW_OP_constu 16, DW_OP_and, DW_OP_stack_value] $r9
	@DEBUG_VALUE: CLK_WaitClockReady:u32TimeOutCnt <- [DW_OP_constu 3, DW_OP_minus, DW_OP_stack_value] $r0
	.loc	2 974 17                        @ Library/StdDriver/src/clk.c:974:17
	ldr	r2, [r5]
	.loc	2 974 5 is_stmt 0               @ Library/StdDriver/src/clk.c:974:5
	lsls	r2, r2, #27
	bmi	.LBB13_9
.Ltmp122:
@ %bb.8:                                @   in Loop: Header=BB13_1 Depth=1
	@DEBUG_VALUE: CLK_WaitClockReady:u32TimeOutCnt <- [DW_OP_constu 3, DW_OP_minus, DW_OP_stack_value] $r0
	@DEBUG_VALUE: CLK_WaitClockReady:u32Ret <- 1
	@DEBUG_VALUE: CLK_SetCoreClock:u32Hclk <- $r1
	@DEBUG_VALUE: CLK_WaitClockReady:u32ClkMask <- 16
	@DEBUG_VALUE: CLK_SetCoreClock:u32HIRCSTB <- [DW_OP_constu 16, DW_OP_and, DW_OP_stack_value] $r9
	.loc	2 976 12 is_stmt 1              @ Library/StdDriver/src/clk.c:976:12
	subs	r0, #4
.Ltmp123:
	@DEBUG_VALUE: CLK_WaitClockReady:u32TimeOutCnt <- $r0
	.loc	2 976 12 is_stmt 0              @ Library/StdDriver/src/clk.c:976:12
	bne	.LBB13_1
	b	.LBB13_11
.Ltmp124:
.LBB13_9:
	@DEBUG_VALUE: CLK_WaitClockReady:u32Ret <- 1
	@DEBUG_VALUE: CLK_SetCoreClock:u32Hclk <- $r1
	@DEBUG_VALUE: CLK_WaitClockReady:u32ClkMask <- 16
	@DEBUG_VALUE: CLK_SetCoreClock:u32HIRCSTB <- [DW_OP_constu 16, DW_OP_and, DW_OP_stack_value] $r9
	.loc	2 0 12                          @ Library/StdDriver/src/clk.c:0:12
	movs	r0, #1
.Ltmp125:
.LBB13_10:
	@DEBUG_VALUE: CLK_WaitClockReady:u32Ret <- 1
	@DEBUG_VALUE: CLK_SetCoreClock:u32Hclk <- $r1
	@DEBUG_VALUE: CLK_WaitClockReady:u32ClkMask <- 16
	@DEBUG_VALUE: CLK_SetCoreClock:u32HIRCSTB <- [DW_OP_constu 16, DW_OP_and, DW_OP_stack_value] $r9
	@DEBUG_VALUE: CLK_WaitClockReady:u32TimeOutCnt <- $r0
	@DEBUG_VALUE: CLK_WaitClockReady:u32Ret <- 1
	.loc	2 983 8 is_stmt 1               @ Library/StdDriver/src/clk.c:983:8
	cbnz	r0, .LBB13_12
.Ltmp126:
.LBB13_11:
	@DEBUG_VALUE: CLK_WaitClockReady:u32Ret <- 1
	@DEBUG_VALUE: CLK_SetCoreClock:u32Hclk <- $r1
	@DEBUG_VALUE: CLK_WaitClockReady:u32ClkMask <- 16
	@DEBUG_VALUE: CLK_SetCoreClock:u32HIRCSTB <- [DW_OP_constu 16, DW_OP_and, DW_OP_stack_value] $r9
	.loc	2 0 8 is_stmt 0                 @ Library/StdDriver/src/clk.c:0:8
	mov.w	r0, #-1
.Ltmp127:
	.loc	2 984 26 is_stmt 1              @ Library/StdDriver/src/clk.c:984:26
	str	r0, [r7]
.Ltmp128:
.LBB13_12:
	@DEBUG_VALUE: CLK_SetCoreClock:u32Hclk <- $r1
	@DEBUG_VALUE: CLK_SetCoreClock:u32HIRCSTB <- [DW_OP_constu 16, DW_OP_and, DW_OP_stack_value] $r9
	.loc	2 289 18                        @ Library/StdDriver/src/clk.c:289:18
	ldr	r0, [r5, #-64]
	orr	r0, r0, #7
	str	r0, [r5, #-64]
	.loc	2 290 18                        @ Library/StdDriver/src/clk.c:290:18
	ldr	r0, [r5, #-48]
	bic	r0, r0, #15
	str	r0, [r5, #-48]
.Ltmp129:
	.loc	2 293 14                        @ Library/StdDriver/src/clk.c:293:14
	ldr	r0, [r5, #-80]
.Ltmp130:
	.loc	2 293 8 is_stmt 0               @ Library/StdDriver/src/clk.c:293:8
	lsls	r0, r0, #31
	bne	.LBB13_14
.Ltmp131:
@ %bb.13:
	@DEBUG_VALUE: CLK_SetCoreClock:u32Hclk <- $r1
	@DEBUG_VALUE: CLK_SetCoreClock:u32HIRCSTB <- [DW_OP_constu 16, DW_OP_and, DW_OP_stack_value] $r9
	.loc	2 300 19 is_stmt 1              @ Library/StdDriver/src/clk.c:300:19
	mov.w	r0, #524288
	bl	CLK_EnablePLL
.Ltmp132:
	.loc	2 303 27                        @ Library/StdDriver/src/clk.c:303:27
	ldr.w	r9, [r5]
.Ltmp133:
	@DEBUG_VALUE: CLK_SetCoreClock:u32HIRCSTB <- [DW_OP_constu 16, DW_OP_and, DW_OP_stack_value] $r9
	.loc	2 0 27 is_stmt 0                @ Library/StdDriver/src/clk.c:0:27
	b	.LBB13_15
.Ltmp134:
.LBB13_14:
	@DEBUG_VALUE: CLK_SetCoreClock:u32Hclk <- $r1
	@DEBUG_VALUE: CLK_SetCoreClock:u32HIRCSTB <- [DW_OP_constu 16, DW_OP_and, DW_OP_stack_value] $r9
	@DEBUG_VALUE: CLK_SetCoreClock:u32HIRCSTB <- [DW_OP_constu 16, DW_OP_and, DW_OP_stack_value] $r9
	.loc	2 295 19 is_stmt 1              @ Library/StdDriver/src/clk.c:295:19
	movs	r0, #0
	bl	CLK_EnablePLL
.Ltmp135:
.LBB13_15:
	@DEBUG_VALUE: CLK_SetCoreClock:u32HIRCSTB <- [DW_OP_constu 16, DW_OP_and, DW_OP_stack_value] $r9
	.loc	2 0 0 is_stmt 0                 @ Library/StdDriver/src/clk.c:0:0
	mov	r4, r0
.Ltmp136:
	@DEBUG_VALUE: CLK_SetCoreClock:u32Hclk <- $r4
	@DEBUG_VALUE: CLK_SetCoreClock:u32HIRCSTB <- undef
	@DEBUG_VALUE: CLK_SetHCLK:u32ClkSrc <- 2
	@DEBUG_VALUE: CLK_SetHCLK:u32ClkDiv <- 0
	.loc	2 340 23 is_stmt 1              @ Library/StdDriver/src/clk.c:340:23
	ldr	r6, [r5]
.Ltmp137:
	@DEBUG_VALUE: CLK_SetHCLK:u32HIRCSTB <- undef
	.loc	2 343 17                        @ Library/StdDriver/src/clk.c:343:17
	ldr	r0, [r5, #-80]
	movs	r1, #0
	orr	r0, r0, #4
	str	r0, [r5, #-80]
.Ltmp138:
	@DEBUG_VALUE: CLK_WaitClockReady:u32ClkMask <- 16
	.loc	2 970 30                        @ Library/StdDriver/src/clk.c:970:30
	ldr.w	r0, [r8]
	.loc	2 973 22                        @ Library/StdDriver/src/clk.c:973:22
	str	r1, [r7]
	.loc	2 970 46                        @ Library/StdDriver/src/clk.c:970:46
	lsrs	r0, r0, #1
.Ltmp139:
	@DEBUG_VALUE: CLK_WaitClockReady:u32Ret <- 1
	@DEBUG_VALUE: CLK_WaitClockReady:u32TimeOutCnt <- $r0
.LBB13_16:                              @ =>This Inner Loop Header: Depth=1
	@DEBUG_VALUE: CLK_WaitClockReady:u32TimeOutCnt <- $r0
	@DEBUG_VALUE: CLK_WaitClockReady:u32Ret <- 1
	@DEBUG_VALUE: CLK_WaitClockReady:u32ClkMask <- 16
	@DEBUG_VALUE: CLK_SetHCLK:u32ClkDiv <- 0
	@DEBUG_VALUE: CLK_SetHCLK:u32ClkSrc <- 2
	@DEBUG_VALUE: CLK_SetCoreClock:u32Hclk <- $r4
	@DEBUG_VALUE: CLK_WaitClockReady:u32TimeOutCnt <- $r0
	.loc	2 974 17                        @ Library/StdDriver/src/clk.c:974:17
	ldr	r1, [r5]
	.loc	2 974 5 is_stmt 0               @ Library/StdDriver/src/clk.c:974:5
	lsls	r1, r1, #27
	bmi	.LBB13_25
.Ltmp140:
@ %bb.17:                               @   in Loop: Header=BB13_16 Depth=1
	@DEBUG_VALUE: CLK_WaitClockReady:u32TimeOutCnt <- $r0
	@DEBUG_VALUE: CLK_WaitClockReady:u32Ret <- 1
	@DEBUG_VALUE: CLK_WaitClockReady:u32ClkMask <- 16
	@DEBUG_VALUE: CLK_SetHCLK:u32ClkDiv <- 0
	@DEBUG_VALUE: CLK_SetHCLK:u32ClkSrc <- 2
	@DEBUG_VALUE: CLK_SetCoreClock:u32Hclk <- $r4
	@DEBUG_VALUE: CLK_WaitClockReady:u32TimeOutCnt <- [DW_OP_constu 1, DW_OP_minus, DW_OP_stack_value] $r0
	.loc	2 976 12 is_stmt 1              @ Library/StdDriver/src/clk.c:976:12
	cmp	r0, #1
	beq	.LBB13_26
.Ltmp141:
@ %bb.18:                               @   in Loop: Header=BB13_16 Depth=1
	@DEBUG_VALUE: CLK_WaitClockReady:u32TimeOutCnt <- [DW_OP_constu 1, DW_OP_minus, DW_OP_stack_value] $r0
	@DEBUG_VALUE: CLK_WaitClockReady:u32Ret <- 1
	@DEBUG_VALUE: CLK_WaitClockReady:u32ClkMask <- 16
	@DEBUG_VALUE: CLK_SetHCLK:u32ClkDiv <- 0
	@DEBUG_VALUE: CLK_SetHCLK:u32ClkSrc <- 2
	@DEBUG_VALUE: CLK_SetCoreClock:u32Hclk <- $r4
	@DEBUG_VALUE: CLK_WaitClockReady:u32TimeOutCnt <- [DW_OP_constu 1, DW_OP_minus, DW_OP_stack_value] $r0
	.loc	2 974 17                        @ Library/StdDriver/src/clk.c:974:17
	ldr	r1, [r5]
	.loc	2 974 5 is_stmt 0               @ Library/StdDriver/src/clk.c:974:5
	lsls	r1, r1, #27
	bmi	.LBB13_24
.Ltmp142:
@ %bb.19:                               @   in Loop: Header=BB13_16 Depth=1
	@DEBUG_VALUE: CLK_WaitClockReady:u32TimeOutCnt <- [DW_OP_constu 1, DW_OP_minus, DW_OP_stack_value] $r0
	@DEBUG_VALUE: CLK_WaitClockReady:u32Ret <- 1
	@DEBUG_VALUE: CLK_WaitClockReady:u32ClkMask <- 16
	@DEBUG_VALUE: CLK_SetHCLK:u32ClkDiv <- 0
	@DEBUG_VALUE: CLK_SetHCLK:u32ClkSrc <- 2
	@DEBUG_VALUE: CLK_SetCoreClock:u32Hclk <- $r4
	@DEBUG_VALUE: CLK_WaitClockReady:u32TimeOutCnt <- [DW_OP_constu 2, DW_OP_minus, DW_OP_stack_value] $r0
	.loc	2 976 12 is_stmt 1              @ Library/StdDriver/src/clk.c:976:12
	cmp	r0, #2
	beq	.LBB13_26
.Ltmp143:
@ %bb.20:                               @   in Loop: Header=BB13_16 Depth=1
	@DEBUG_VALUE: CLK_WaitClockReady:u32TimeOutCnt <- [DW_OP_constu 2, DW_OP_minus, DW_OP_stack_value] $r0
	@DEBUG_VALUE: CLK_WaitClockReady:u32Ret <- 1
	@DEBUG_VALUE: CLK_WaitClockReady:u32ClkMask <- 16
	@DEBUG_VALUE: CLK_SetHCLK:u32ClkDiv <- 0
	@DEBUG_VALUE: CLK_SetHCLK:u32ClkSrc <- 2
	@DEBUG_VALUE: CLK_SetCoreClock:u32Hclk <- $r4
	@DEBUG_VALUE: CLK_WaitClockReady:u32TimeOutCnt <- [DW_OP_constu 2, DW_OP_minus, DW_OP_stack_value] $r0
	.loc	2 974 17                        @ Library/StdDriver/src/clk.c:974:17
	ldr	r1, [r5]
	.loc	2 974 5 is_stmt 0               @ Library/StdDriver/src/clk.c:974:5
	lsls	r1, r1, #27
	bmi	.LBB13_24
.Ltmp144:
@ %bb.21:                               @   in Loop: Header=BB13_16 Depth=1
	@DEBUG_VALUE: CLK_WaitClockReady:u32TimeOutCnt <- [DW_OP_constu 2, DW_OP_minus, DW_OP_stack_value] $r0
	@DEBUG_VALUE: CLK_WaitClockReady:u32Ret <- 1
	@DEBUG_VALUE: CLK_WaitClockReady:u32ClkMask <- 16
	@DEBUG_VALUE: CLK_SetHCLK:u32ClkDiv <- 0
	@DEBUG_VALUE: CLK_SetHCLK:u32ClkSrc <- 2
	@DEBUG_VALUE: CLK_SetCoreClock:u32Hclk <- $r4
	@DEBUG_VALUE: CLK_WaitClockReady:u32TimeOutCnt <- [DW_OP_constu 3, DW_OP_minus, DW_OP_stack_value] $r0
	.loc	2 976 12 is_stmt 1              @ Library/StdDriver/src/clk.c:976:12
	cmp	r0, #3
	beq	.LBB13_26
.Ltmp145:
@ %bb.22:                               @   in Loop: Header=BB13_16 Depth=1
	@DEBUG_VALUE: CLK_WaitClockReady:u32TimeOutCnt <- [DW_OP_constu 3, DW_OP_minus, DW_OP_stack_value] $r0
	@DEBUG_VALUE: CLK_WaitClockReady:u32Ret <- 1
	@DEBUG_VALUE: CLK_WaitClockReady:u32ClkMask <- 16
	@DEBUG_VALUE: CLK_SetHCLK:u32ClkDiv <- 0
	@DEBUG_VALUE: CLK_SetHCLK:u32ClkSrc <- 2
	@DEBUG_VALUE: CLK_SetCoreClock:u32Hclk <- $r4
	@DEBUG_VALUE: CLK_WaitClockReady:u32TimeOutCnt <- [DW_OP_constu 3, DW_OP_minus, DW_OP_stack_value] $r0
	.loc	2 974 17                        @ Library/StdDriver/src/clk.c:974:17
	ldr	r1, [r5]
	.loc	2 974 5 is_stmt 0               @ Library/StdDriver/src/clk.c:974:5
	lsls	r1, r1, #27
	bmi	.LBB13_24
.Ltmp146:
@ %bb.23:                               @   in Loop: Header=BB13_16 Depth=1
	@DEBUG_VALUE: CLK_WaitClockReady:u32TimeOutCnt <- [DW_OP_constu 3, DW_OP_minus, DW_OP_stack_value] $r0
	@DEBUG_VALUE: CLK_WaitClockReady:u32Ret <- 1
	@DEBUG_VALUE: CLK_WaitClockReady:u32ClkMask <- 16
	@DEBUG_VALUE: CLK_SetHCLK:u32ClkDiv <- 0
	@DEBUG_VALUE: CLK_SetHCLK:u32ClkSrc <- 2
	@DEBUG_VALUE: CLK_SetCoreClock:u32Hclk <- $r4
	.loc	2 976 12 is_stmt 1              @ Library/StdDriver/src/clk.c:976:12
	subs	r0, #4
.Ltmp147:
	@DEBUG_VALUE: CLK_WaitClockReady:u32TimeOutCnt <- $r0
	.loc	2 976 12 is_stmt 0              @ Library/StdDriver/src/clk.c:976:12
	bne	.LBB13_16
	b	.LBB13_26
.Ltmp148:
.LBB13_24:
	@DEBUG_VALUE: CLK_WaitClockReady:u32Ret <- 1
	@DEBUG_VALUE: CLK_WaitClockReady:u32ClkMask <- 16
	@DEBUG_VALUE: CLK_SetHCLK:u32ClkDiv <- 0
	@DEBUG_VALUE: CLK_SetHCLK:u32ClkSrc <- 2
	@DEBUG_VALUE: CLK_SetCoreClock:u32Hclk <- $r4
	.loc	2 0 12                          @ Library/StdDriver/src/clk.c:0:12
	movs	r0, #1
.Ltmp149:
.LBB13_25:
	@DEBUG_VALUE: CLK_WaitClockReady:u32Ret <- 1
	@DEBUG_VALUE: CLK_WaitClockReady:u32ClkMask <- 16
	@DEBUG_VALUE: CLK_SetHCLK:u32ClkDiv <- 0
	@DEBUG_VALUE: CLK_SetHCLK:u32ClkSrc <- 2
	@DEBUG_VALUE: CLK_SetCoreClock:u32Hclk <- $r4
	@DEBUG_VALUE: CLK_WaitClockReady:u32TimeOutCnt <- $r0
	@DEBUG_VALUE: CLK_WaitClockReady:u32Ret <- 1
	.loc	2 983 8 is_stmt 1               @ Library/StdDriver/src/clk.c:983:8
	cbnz	r0, .LBB13_27
.Ltmp150:
.LBB13_26:
	@DEBUG_VALUE: CLK_WaitClockReady:u32Ret <- 1
	@DEBUG_VALUE: CLK_WaitClockReady:u32ClkMask <- 16
	@DEBUG_VALUE: CLK_SetHCLK:u32ClkDiv <- 0
	@DEBUG_VALUE: CLK_SetHCLK:u32ClkSrc <- 2
	@DEBUG_VALUE: CLK_SetCoreClock:u32Hclk <- $r4
	.loc	2 0 8 is_stmt 0                 @ Library/StdDriver/src/clk.c:0:8
	mov.w	r0, #-1
.Ltmp151:
	.loc	2 984 26 is_stmt 1              @ Library/StdDriver/src/clk.c:984:26
	str	r0, [r7]
.Ltmp152:
.LBB13_27:
	@DEBUG_VALUE: CLK_SetHCLK:u32ClkDiv <- 0
	@DEBUG_VALUE: CLK_SetHCLK:u32ClkSrc <- 2
	@DEBUG_VALUE: CLK_SetCoreClock:u32Hclk <- $r4
	.loc	2 345 26                        @ Library/StdDriver/src/clk.c:345:26
	ldr	r0, [r5, #-64]
	movs	r1, #2
	.loc	2 345 64 is_stmt 0              @ Library/StdDriver/src/clk.c:345:64
	orr	r0, r0, #7
	.loc	2 345 18                        @ Library/StdDriver/src/clk.c:345:18
	str	r0, [r5, #-64]
	.loc	2 348 26 is_stmt 1              @ Library/StdDriver/src/clk.c:348:26
	ldr	r0, [r5, #-48]
	.loc	2 348 34 is_stmt 0              @ Library/StdDriver/src/clk.c:348:34
	bic	r0, r0, #15
	.loc	2 348 18                        @ Library/StdDriver/src/clk.c:348:18
	str	r0, [r5, #-48]
	.loc	2 351 26 is_stmt 1              @ Library/StdDriver/src/clk.c:351:26
	ldr	r0, [r5, #-64]
	.loc	2 351 64 is_stmt 0              @ Library/StdDriver/src/clk.c:351:64
	bfi	r0, r1, #0, #3
	.loc	2 351 18                        @ Library/StdDriver/src/clk.c:351:18
	str	r0, [r5, #-64]
	.loc	2 354 5 is_stmt 1               @ Library/StdDriver/src/clk.c:354:5
	bl	SystemCoreClockUpdate
.Ltmp153:
	.loc	2 357 8                         @ Library/StdDriver/src/clk.c:357:8
	lsls	r0, r6, #27
	bmi	.LBB13_29
.Ltmp154:
@ %bb.28:
	@DEBUG_VALUE: CLK_SetHCLK:u32ClkDiv <- 0
	@DEBUG_VALUE: CLK_SetHCLK:u32ClkSrc <- 2
	@DEBUG_VALUE: CLK_SetCoreClock:u32Hclk <- $r4
	.loc	2 359 21                        @ Library/StdDriver/src/clk.c:359:21
	ldr	r0, [r5, #-80]
	bic	r0, r0, #4
	str	r0, [r5, #-80]
.Ltmp155:
.LBB13_29:
	@DEBUG_VALUE: CLK_SetCoreClock:u32Hclk <- $r4
	.loc	2 312 8                         @ Library/StdDriver/src/clk.c:312:8
	lsls.w	r0, r9, #27
	bmi	.LBB13_31
.Ltmp156:
@ %bb.30:
	@DEBUG_VALUE: CLK_SetCoreClock:u32Hclk <- $r4
	.loc	2 314 21                        @ Library/StdDriver/src/clk.c:314:21
	ldr	r0, [r5, #-80]
	bic	r0, r0, #4
	str	r0, [r5, #-80]
.Ltmp157:
.LBB13_31:
	@DEBUG_VALUE: CLK_SetCoreClock:u32Hclk <- $r4
	.loc	2 318 5                         @ Library/StdDriver/src/clk.c:318:5
	mov	r0, r4
	.loc	2 318 5 epilogue_begin is_stmt 0 @ Library/StdDriver/src/clk.c:318:5
	add	sp, #4
	pop.w	{r4, r5, r6, r7, r8, r9, pc}
.Ltmp158:
.Lfunc_end13:
	.size	CLK_SetCoreClock, .Lfunc_end13-CLK_SetCoreClock
	.cfi_endproc
	.cantunwind
	.fnend
                                        @ -- End function
	.hidden	CLK_WaitClockReady              @ -- Begin function CLK_WaitClockReady
	.globl	CLK_WaitClockReady
	.p2align	2
	.type	CLK_WaitClockReady,%function
	.code	16                              @ @CLK_WaitClockReady
	.thumb_func
CLK_WaitClockReady:
.Lfunc_begin14:
	.fnstart
	.cfi_startproc
@ %bb.0:
	@DEBUG_VALUE: CLK_WaitClockReady:u32ClkMask <- $r0
	.loc	2 970 30 prologue_end is_stmt 1 @ Library/StdDriver/src/clk.c:970:30
	movw	r1, :lower16:SystemCoreClock
	movt	r1, :upper16:SystemCoreClock
	ldr	r1, [r1]
	movw	r3, #592
	.loc	2 973 22                        @ Library/StdDriver/src/clk.c:973:22
	movw	r12, :lower16:g_CLK_i32ErrCode
	movt	r3, #16384
	.loc	2 970 46                        @ Library/StdDriver/src/clk.c:970:46
	lsrs	r2, r1, #1
.Ltmp159:
	@DEBUG_VALUE: CLK_WaitClockReady:u32Ret <- 1
	@DEBUG_VALUE: CLK_WaitClockReady:u32TimeOutCnt <- $r2
	.loc	2 973 22                        @ Library/StdDriver/src/clk.c:973:22
	movt	r12, :upper16:g_CLK_i32ErrCode
	movs	r1, #0
	str.w	r1, [r12]
.Ltmp160:
.LBB14_1:                               @ =>This Inner Loop Header: Depth=1
	@DEBUG_VALUE: CLK_WaitClockReady:u32TimeOutCnt <- $r2
	@DEBUG_VALUE: CLK_WaitClockReady:u32Ret <- 1
	@DEBUG_VALUE: CLK_WaitClockReady:u32ClkMask <- $r0
	@DEBUG_VALUE: CLK_WaitClockReady:u32TimeOutCnt <- $r2
	.loc	2 974 17                        @ Library/StdDriver/src/clk.c:974:17
	ldr	r1, [r3]
	.loc	2 974 24 is_stmt 0              @ Library/StdDriver/src/clk.c:974:24
	ands	r1, r0
	.loc	2 974 5                         @ Library/StdDriver/src/clk.c:974:5
	cmp	r1, r0
	beq	.LBB14_11
.Ltmp161:
@ %bb.2:                                @   in Loop: Header=BB14_1 Depth=1
	@DEBUG_VALUE: CLK_WaitClockReady:u32TimeOutCnt <- $r2
	@DEBUG_VALUE: CLK_WaitClockReady:u32Ret <- 1
	@DEBUG_VALUE: CLK_WaitClockReady:u32ClkMask <- $r0
	@DEBUG_VALUE: CLK_WaitClockReady:u32TimeOutCnt <- [DW_OP_constu 1, DW_OP_minus, DW_OP_stack_value] $r2
	.loc	2 976 12 is_stmt 1              @ Library/StdDriver/src/clk.c:976:12
	cmp	r2, #1
	beq	.LBB14_9
.Ltmp162:
@ %bb.3:                                @   in Loop: Header=BB14_1 Depth=1
	@DEBUG_VALUE: CLK_WaitClockReady:u32TimeOutCnt <- [DW_OP_constu 1, DW_OP_minus, DW_OP_stack_value] $r2
	@DEBUG_VALUE: CLK_WaitClockReady:u32Ret <- 1
	@DEBUG_VALUE: CLK_WaitClockReady:u32ClkMask <- $r0
	@DEBUG_VALUE: CLK_WaitClockReady:u32TimeOutCnt <- [DW_OP_constu 1, DW_OP_minus, DW_OP_stack_value] $r2
	.loc	2 974 17                        @ Library/StdDriver/src/clk.c:974:17
	ldr	r1, [r3]
	.loc	2 974 24 is_stmt 0              @ Library/StdDriver/src/clk.c:974:24
	ands	r1, r0
	.loc	2 974 5                         @ Library/StdDriver/src/clk.c:974:5
	cmp	r1, r0
	beq	.LBB14_10
.Ltmp163:
@ %bb.4:                                @   in Loop: Header=BB14_1 Depth=1
	@DEBUG_VALUE: CLK_WaitClockReady:u32TimeOutCnt <- [DW_OP_constu 1, DW_OP_minus, DW_OP_stack_value] $r2
	@DEBUG_VALUE: CLK_WaitClockReady:u32Ret <- 1
	@DEBUG_VALUE: CLK_WaitClockReady:u32ClkMask <- $r0
	@DEBUG_VALUE: CLK_WaitClockReady:u32TimeOutCnt <- [DW_OP_constu 2, DW_OP_minus, DW_OP_stack_value] $r2
	.loc	2 976 12 is_stmt 1              @ Library/StdDriver/src/clk.c:976:12
	cmp	r2, #2
	beq	.LBB14_9
.Ltmp164:
@ %bb.5:                                @   in Loop: Header=BB14_1 Depth=1
	@DEBUG_VALUE: CLK_WaitClockReady:u32TimeOutCnt <- [DW_OP_constu 2, DW_OP_minus, DW_OP_stack_value] $r2
	@DEBUG_VALUE: CLK_WaitClockReady:u32Ret <- 1
	@DEBUG_VALUE: CLK_WaitClockReady:u32ClkMask <- $r0
	@DEBUG_VALUE: CLK_WaitClockReady:u32TimeOutCnt <- [DW_OP_constu 2, DW_OP_minus, DW_OP_stack_value] $r2
	.loc	2 974 17                        @ Library/StdDriver/src/clk.c:974:17
	ldr	r1, [r3]
	.loc	2 974 24 is_stmt 0              @ Library/StdDriver/src/clk.c:974:24
	ands	r1, r0
	.loc	2 974 5                         @ Library/StdDriver/src/clk.c:974:5
	cmp	r1, r0
	beq	.LBB14_10
.Ltmp165:
@ %bb.6:                                @   in Loop: Header=BB14_1 Depth=1
	@DEBUG_VALUE: CLK_WaitClockReady:u32TimeOutCnt <- [DW_OP_constu 2, DW_OP_minus, DW_OP_stack_value] $r2
	@DEBUG_VALUE: CLK_WaitClockReady:u32Ret <- 1
	@DEBUG_VALUE: CLK_WaitClockReady:u32ClkMask <- $r0
	@DEBUG_VALUE: CLK_WaitClockReady:u32TimeOutCnt <- [DW_OP_constu 3, DW_OP_minus, DW_OP_stack_value] $r2
	.loc	2 976 12 is_stmt 1              @ Library/StdDriver/src/clk.c:976:12
	cmp	r2, #3
	beq	.LBB14_9
.Ltmp166:
@ %bb.7:                                @   in Loop: Header=BB14_1 Depth=1
	@DEBUG_VALUE: CLK_WaitClockReady:u32TimeOutCnt <- [DW_OP_constu 3, DW_OP_minus, DW_OP_stack_value] $r2
	@DEBUG_VALUE: CLK_WaitClockReady:u32Ret <- 1
	@DEBUG_VALUE: CLK_WaitClockReady:u32ClkMask <- $r0
	@DEBUG_VALUE: CLK_WaitClockReady:u32TimeOutCnt <- [DW_OP_constu 3, DW_OP_minus, DW_OP_stack_value] $r2
	.loc	2 974 17                        @ Library/StdDriver/src/clk.c:974:17
	ldr	r1, [r3]
	.loc	2 974 24 is_stmt 0              @ Library/StdDriver/src/clk.c:974:24
	ands	r1, r0
	.loc	2 974 5                         @ Library/StdDriver/src/clk.c:974:5
	cmp	r1, r0
	beq	.LBB14_10
.Ltmp167:
@ %bb.8:                                @   in Loop: Header=BB14_1 Depth=1
	@DEBUG_VALUE: CLK_WaitClockReady:u32TimeOutCnt <- [DW_OP_constu 3, DW_OP_minus, DW_OP_stack_value] $r2
	@DEBUG_VALUE: CLK_WaitClockReady:u32Ret <- 1
	@DEBUG_VALUE: CLK_WaitClockReady:u32ClkMask <- $r0
	.loc	2 976 12 is_stmt 1              @ Library/StdDriver/src/clk.c:976:12
	subs	r2, #4
.Ltmp168:
	@DEBUG_VALUE: CLK_WaitClockReady:u32TimeOutCnt <- $r2
	.loc	2 976 12 is_stmt 0              @ Library/StdDriver/src/clk.c:976:12
	bne	.LBB14_1
.Ltmp169:
.LBB14_9:
	@DEBUG_VALUE: CLK_WaitClockReady:u32Ret <- 1
	@DEBUG_VALUE: CLK_WaitClockReady:u32ClkMask <- $r0
	.loc	2 0 12                          @ Library/StdDriver/src/clk.c:0:12
	movs	r0, #0
.Ltmp170:
	@DEBUG_VALUE: CLK_WaitClockReady:u32ClkMask <- [DW_OP_LLVM_entry_value 1] $r0
	b	.LBB14_12
.Ltmp171:
.LBB14_10:
	@DEBUG_VALUE: CLK_WaitClockReady:u32Ret <- 1
	@DEBUG_VALUE: CLK_WaitClockReady:u32ClkMask <- $r0
	movs	r2, #1
.Ltmp172:
.LBB14_11:
	@DEBUG_VALUE: CLK_WaitClockReady:u32Ret <- 1
	@DEBUG_VALUE: CLK_WaitClockReady:u32ClkMask <- $r0
	@DEBUG_VALUE: CLK_WaitClockReady:u32TimeOutCnt <- $r2
	@DEBUG_VALUE: CLK_WaitClockReady:u32Ret <- 1
	.loc	2 983 8 is_stmt 1               @ Library/StdDriver/src/clk.c:983:8
	cmp	r2, #0
	mov.w	r0, #1
.Ltmp173:
	@DEBUG_VALUE: CLK_WaitClockReady:u32ClkMask <- [DW_OP_LLVM_entry_value 1] $r0
	.loc	2 986 5                         @ Library/StdDriver/src/clk.c:986:5
	it	ne
	bxne	lr
.Ltmp174:
.LBB14_12:
	@DEBUG_VALUE: CLK_WaitClockReady:u32ClkMask <- [DW_OP_LLVM_entry_value 1] $r0
	@DEBUG_VALUE: CLK_WaitClockReady:u32Ret <- 1
	.loc	2 0 5 is_stmt 0                 @ Library/StdDriver/src/clk.c:0:5
	mov.w	r1, #-1
.Ltmp175:
	.loc	2 984 26 is_stmt 1              @ Library/StdDriver/src/clk.c:984:26
	str.w	r1, [r12]
.Ltmp176:
	.loc	2 986 5                         @ Library/StdDriver/src/clk.c:986:5
	bx	lr
.Ltmp177:
.Lfunc_end14:
	.size	CLK_WaitClockReady, .Lfunc_end14-CLK_WaitClockReady
	.cfi_endproc
	.cantunwind
	.fnend
                                        @ -- End function
	.hidden	CLK_EnablePLL                   @ -- Begin function CLK_EnablePLL
	.globl	CLK_EnablePLL
	.p2align	2
	.type	CLK_EnablePLL,%function
	.code	16                              @ @CLK_EnablePLL
	.thumb_func
CLK_EnablePLL:
.Lfunc_begin15:
	.loc	2 793 0                         @ Library/StdDriver/src/clk.c:793:0
	.fnstart
	.cfi_startproc
@ %bb.0:
	@DEBUG_VALUE: CLK_EnablePLL:u32PllClkSrc <- $r0
	@DEBUG_VALUE: CLK_EnablePLL:u32PllFreq <- $r1
	.save	{r4, r5, r6, r7, r8, r9, r10, r11, lr}
	push.w	{r4, r5, r6, r7, r8, r9, r10, r11, lr}
	.cfi_def_cfa_offset 36
	.cfi_offset lr, -4
	.cfi_offset r11, -8
	.cfi_offset r10, -12
	.cfi_offset r9, -16
	.cfi_offset r8, -20
	.cfi_offset r7, -24
	.cfi_offset r6, -28
	.cfi_offset r5, -32
	.cfi_offset r4, -36
	.pad	#160
	sub	sp, #160
	.cfi_def_cfa_offset 196
	movw	r6, #592
	movt	r6, #16384
	mov	r4, r1
.Ltmp178:
	@DEBUG_VALUE: CLK_EnablePLL:u32PllFreq <- $r4
	@DEBUG_VALUE: CLK_EnablePLL:u32PllFreq <- $r4
	.loc	2 951 17 prologue_end           @ Library/StdDriver/src/clk.c:951:17
	ldr	r1, [r6, #-16]
	movw	r5, :lower16:SystemCoreClock
	orr	r1, r1, #65536
	str	r1, [r6, #-16]
.Ltmp179:
	.loc	2 0 0 is_stmt 0                 @ Library/StdDriver/src/clk.c:0:0
	ldr	r1, [r6, #-80]
	movw	r7, :lower16:g_CLK_i32ErrCode
	movt	r5, :upper16:SystemCoreClock
	movt	r7, :upper16:g_CLK_i32ErrCode
.Ltmp180:
	.loc	2 801 8 is_stmt 1               @ Library/StdDriver/src/clk.c:801:8
	cbz	r0, .LBB15_10
.Ltmp181:
@ %bb.1:
	@DEBUG_VALUE: CLK_EnablePLL:u32PllFreq <- $r4
	@DEBUG_VALUE: CLK_EnablePLL:u32PllClkSrc <- $r0
	.loc	2 825 21                        @ Library/StdDriver/src/clk.c:825:21
	orr	r1, r1, #4
	str	r1, [r6, #-80]
.Ltmp182:
	@DEBUG_VALUE: CLK_WaitClockReady:u32ClkMask <- 16
	.loc	2 970 30                        @ Library/StdDriver/src/clk.c:970:30
	ldr	r1, [r5]
.Ltmp183:
	@DEBUG_VALUE: CLK_WaitClockReady:u32Ret <- 1
	@DEBUG_VALUE: CLK_WaitClockReady:u32TimeOutCnt <- undef
	.loc	2 0 30 is_stmt 0                @ Library/StdDriver/src/clk.c:0:30
	movs	r2, #0
	.loc	2 973 22 is_stmt 1              @ Library/StdDriver/src/clk.c:973:22
	str	r2, [r7]
	movs	r2, #2
	.loc	2 974 5                         @ Library/StdDriver/src/clk.c:974:5
	sub.w	r1, r2, r1, lsr #1
.Ltmp184:
	.p2align	2
.LBB15_2:                               @ =>This Inner Loop Header: Depth=1
	@DEBUG_VALUE: CLK_WaitClockReady:u32Ret <- 1
	@DEBUG_VALUE: CLK_WaitClockReady:u32ClkMask <- 16
	@DEBUG_VALUE: CLK_EnablePLL:u32PllFreq <- $r4
	@DEBUG_VALUE: CLK_EnablePLL:u32PllClkSrc <- $r0
	@DEBUG_VALUE: CLK_WaitClockReady:u32TimeOutCnt <- [DW_OP_LLVM_arg 0, DW_OP_consts 2, DW_OP_consts 18446744073709551615, DW_OP_LLVM_arg 0, DW_OP_consts 2, DW_OP_div, DW_OP_mul, DW_OP_plus, DW_OP_minus, DW_OP_consts 4, DW_OP_div, DW_OP_consts 18446744073709551612, DW_OP_mul, DW_OP_LLVM_arg 0, DW_OP_consts 2, DW_OP_div, DW_OP_plus, DW_OP_stack_value] undef
	.loc	2 974 17 is_stmt 0              @ Library/StdDriver/src/clk.c:974:17
	ldr	r2, [r6]
	mov.w	r11, #524288
.Ltmp185:
	@DEBUG_VALUE: CLK_WaitClockReady:u32TimeOutCnt <- [DW_OP_constu 1, DW_OP_minus, DW_OP_stack_value] $r1
	.loc	2 974 5                         @ Library/StdDriver/src/clk.c:974:5
	lsls	r2, r2, #27
	bmi	.LBB15_19
.Ltmp186:
@ %bb.3:                                @   in Loop: Header=BB15_2 Depth=1
	@DEBUG_VALUE: CLK_WaitClockReady:u32TimeOutCnt <- [DW_OP_constu 1, DW_OP_minus, DW_OP_stack_value] $r1
	@DEBUG_VALUE: CLK_WaitClockReady:u32Ret <- 1
	@DEBUG_VALUE: CLK_WaitClockReady:u32ClkMask <- 16
	@DEBUG_VALUE: CLK_EnablePLL:u32PllFreq <- $r4
	@DEBUG_VALUE: CLK_EnablePLL:u32PllClkSrc <- $r0
	cmp	r1, #1
	beq	.LBB15_19
.Ltmp187:
@ %bb.4:                                @   in Loop: Header=BB15_2 Depth=1
	@DEBUG_VALUE: CLK_WaitClockReady:u32TimeOutCnt <- [DW_OP_constu 1, DW_OP_minus, DW_OP_stack_value] $r1
	@DEBUG_VALUE: CLK_WaitClockReady:u32Ret <- 1
	@DEBUG_VALUE: CLK_WaitClockReady:u32ClkMask <- 16
	@DEBUG_VALUE: CLK_EnablePLL:u32PllFreq <- $r4
	@DEBUG_VALUE: CLK_EnablePLL:u32PllClkSrc <- $r0
	@DEBUG_VALUE: CLK_WaitClockReady:u32TimeOutCnt <- [DW_OP_constu 1, DW_OP_minus, DW_OP_stack_value] $r1
	.loc	2 974 17                        @ Library/StdDriver/src/clk.c:974:17
	ldr	r2, [r6]
	.loc	2 974 5                         @ Library/StdDriver/src/clk.c:974:5
	lsls	r2, r2, #27
.Ltmp188:
	@DEBUG_VALUE: CLK_WaitClockReady:u32TimeOutCnt <- [DW_OP_constu 2, DW_OP_minus, DW_OP_stack_value] $r1
	bmi	.LBB15_19
.Ltmp189:
@ %bb.5:                                @   in Loop: Header=BB15_2 Depth=1
	@DEBUG_VALUE: CLK_WaitClockReady:u32TimeOutCnt <- [DW_OP_constu 2, DW_OP_minus, DW_OP_stack_value] $r1
	@DEBUG_VALUE: CLK_WaitClockReady:u32Ret <- 1
	@DEBUG_VALUE: CLK_WaitClockReady:u32ClkMask <- 16
	@DEBUG_VALUE: CLK_EnablePLL:u32PllFreq <- $r4
	@DEBUG_VALUE: CLK_EnablePLL:u32PllClkSrc <- $r0
	cbz	r1, .LBB15_19
.Ltmp190:
@ %bb.6:                                @   in Loop: Header=BB15_2 Depth=1
	@DEBUG_VALUE: CLK_WaitClockReady:u32TimeOutCnt <- [DW_OP_constu 2, DW_OP_minus, DW_OP_stack_value] $r1
	@DEBUG_VALUE: CLK_WaitClockReady:u32Ret <- 1
	@DEBUG_VALUE: CLK_WaitClockReady:u32ClkMask <- 16
	@DEBUG_VALUE: CLK_EnablePLL:u32PllFreq <- $r4
	@DEBUG_VALUE: CLK_EnablePLL:u32PllClkSrc <- $r0
	@DEBUG_VALUE: CLK_WaitClockReady:u32TimeOutCnt <- [DW_OP_constu 2, DW_OP_minus, DW_OP_stack_value] $r1
	.loc	2 974 17                        @ Library/StdDriver/src/clk.c:974:17
	ldr	r2, [r6]
	.loc	2 974 5                         @ Library/StdDriver/src/clk.c:974:5
	lsls	r2, r2, #27
.Ltmp191:
	@DEBUG_VALUE: CLK_WaitClockReady:u32TimeOutCnt <- [DW_OP_constu 3, DW_OP_minus, DW_OP_stack_value] $r1
	bmi	.LBB15_19
.Ltmp192:
@ %bb.7:                                @   in Loop: Header=BB15_2 Depth=1
	@DEBUG_VALUE: CLK_WaitClockReady:u32TimeOutCnt <- [DW_OP_constu 3, DW_OP_minus, DW_OP_stack_value] $r1
	@DEBUG_VALUE: CLK_WaitClockReady:u32Ret <- 1
	@DEBUG_VALUE: CLK_WaitClockReady:u32ClkMask <- 16
	@DEBUG_VALUE: CLK_EnablePLL:u32PllFreq <- $r4
	@DEBUG_VALUE: CLK_EnablePLL:u32PllClkSrc <- $r0
	adds	r3, r1, #1
	beq	.LBB15_19
.Ltmp193:
@ %bb.8:                                @   in Loop: Header=BB15_2 Depth=1
	@DEBUG_VALUE: CLK_WaitClockReady:u32TimeOutCnt <- [DW_OP_constu 3, DW_OP_minus, DW_OP_stack_value] $r1
	@DEBUG_VALUE: CLK_WaitClockReady:u32Ret <- 1
	@DEBUG_VALUE: CLK_WaitClockReady:u32ClkMask <- 16
	@DEBUG_VALUE: CLK_EnablePLL:u32PllFreq <- $r4
	@DEBUG_VALUE: CLK_EnablePLL:u32PllClkSrc <- $r0
	@DEBUG_VALUE: CLK_WaitClockReady:u32TimeOutCnt <- [DW_OP_constu 3, DW_OP_minus, DW_OP_stack_value] $r1
	.loc	2 974 17                        @ Library/StdDriver/src/clk.c:974:17
	ldr	r2, [r6]
.Ltmp194:
	@DEBUG_VALUE: CLK_WaitClockReady:u32TimeOutCnt <- [DW_OP_LLVM_arg 0, DW_OP_consts 2, DW_OP_consts 18446744073709551615, DW_OP_LLVM_arg 0, DW_OP_consts 2, DW_OP_div, DW_OP_mul, DW_OP_plus, DW_OP_minus, DW_OP_consts 4, DW_OP_div, DW_OP_consts 18446744073709551612, DW_OP_mul, DW_OP_consts 18446744073709551612, DW_OP_LLVM_arg 0, DW_OP_consts 2, DW_OP_div, DW_OP_plus, DW_OP_plus, DW_OP_stack_value] undef
	.loc	2 974 5                         @ Library/StdDriver/src/clk.c:974:5
	lsls	r2, r2, #27
	bmi	.LBB15_19
.Ltmp195:
@ %bb.9:                                @   in Loop: Header=BB15_2 Depth=1
	@DEBUG_VALUE: CLK_WaitClockReady:u32Ret <- 1
	@DEBUG_VALUE: CLK_WaitClockReady:u32ClkMask <- 16
	@DEBUG_VALUE: CLK_EnablePLL:u32PllFreq <- $r4
	@DEBUG_VALUE: CLK_EnablePLL:u32PllClkSrc <- $r0
	adds	r3, r1, #2
	add.w	r1, r1, #4
	bne	.LBB15_2
	b	.LBB15_19
.Ltmp196:
.LBB15_10:
	@DEBUG_VALUE: CLK_EnablePLL:u32PllFreq <- $r4
	@DEBUG_VALUE: CLK_EnablePLL:u32PllClkSrc <- $r0
	.loc	2 804 21 is_stmt 1              @ Library/StdDriver/src/clk.c:804:21
	orr	r1, r1, #1
	str	r1, [r6, #-80]
.Ltmp197:
	@DEBUG_VALUE: CLK_WaitClockReady:u32ClkMask <- 1
	.loc	2 970 30                        @ Library/StdDriver/src/clk.c:970:30
	ldr	r1, [r5]
.Ltmp198:
	@DEBUG_VALUE: CLK_WaitClockReady:u32Ret <- 1
	@DEBUG_VALUE: CLK_WaitClockReady:u32TimeOutCnt <- undef
	.loc	2 0 30 is_stmt 0                @ Library/StdDriver/src/clk.c:0:30
	movs	r2, #0
	.loc	2 973 22 is_stmt 1              @ Library/StdDriver/src/clk.c:973:22
	str	r2, [r7]
	movs	r2, #2
	.loc	2 974 5                         @ Library/StdDriver/src/clk.c:974:5
	sub.w	r1, r2, r1, lsr #1
.Ltmp199:
	.p2align	2
.LBB15_11:                              @ =>This Inner Loop Header: Depth=1
	@DEBUG_VALUE: CLK_WaitClockReady:u32Ret <- 1
	@DEBUG_VALUE: CLK_WaitClockReady:u32ClkMask <- 1
	@DEBUG_VALUE: CLK_EnablePLL:u32PllFreq <- $r4
	@DEBUG_VALUE: CLK_EnablePLL:u32PllClkSrc <- $r0
	@DEBUG_VALUE: CLK_WaitClockReady:u32TimeOutCnt <- [DW_OP_LLVM_arg 0, DW_OP_consts 2, DW_OP_consts 18446744073709551615, DW_OP_LLVM_arg 0, DW_OP_consts 2, DW_OP_div, DW_OP_mul, DW_OP_plus, DW_OP_minus, DW_OP_consts 4, DW_OP_div, DW_OP_consts 18446744073709551612, DW_OP_mul, DW_OP_LLVM_arg 0, DW_OP_consts 2, DW_OP_div, DW_OP_plus, DW_OP_stack_value] undef
	.loc	2 974 17 is_stmt 0              @ Library/StdDriver/src/clk.c:974:17
	ldr	r2, [r6]
	mov.w	r11, #0
.Ltmp200:
	@DEBUG_VALUE: CLK_WaitClockReady:u32TimeOutCnt <- [DW_OP_constu 1, DW_OP_minus, DW_OP_stack_value] $r1
	.loc	2 974 5                         @ Library/StdDriver/src/clk.c:974:5
	lsls	r2, r2, #31
	bne	.LBB15_19
.Ltmp201:
@ %bb.12:                               @   in Loop: Header=BB15_11 Depth=1
	@DEBUG_VALUE: CLK_WaitClockReady:u32TimeOutCnt <- [DW_OP_constu 1, DW_OP_minus, DW_OP_stack_value] $r1
	@DEBUG_VALUE: CLK_WaitClockReady:u32Ret <- 1
	@DEBUG_VALUE: CLK_WaitClockReady:u32ClkMask <- 1
	@DEBUG_VALUE: CLK_EnablePLL:u32PllFreq <- $r4
	@DEBUG_VALUE: CLK_EnablePLL:u32PllClkSrc <- $r0
	cmp	r1, #1
	beq	.LBB15_19
.Ltmp202:
@ %bb.13:                               @   in Loop: Header=BB15_11 Depth=1
	@DEBUG_VALUE: CLK_WaitClockReady:u32TimeOutCnt <- [DW_OP_constu 1, DW_OP_minus, DW_OP_stack_value] $r1
	@DEBUG_VALUE: CLK_WaitClockReady:u32Ret <- 1
	@DEBUG_VALUE: CLK_WaitClockReady:u32ClkMask <- 1
	@DEBUG_VALUE: CLK_EnablePLL:u32PllFreq <- $r4
	@DEBUG_VALUE: CLK_EnablePLL:u32PllClkSrc <- $r0
	@DEBUG_VALUE: CLK_WaitClockReady:u32TimeOutCnt <- [DW_OP_constu 1, DW_OP_minus, DW_OP_stack_value] $r1
	.loc	2 974 17                        @ Library/StdDriver/src/clk.c:974:17
	ldr	r2, [r6]
	.loc	2 974 5                         @ Library/StdDriver/src/clk.c:974:5
	lsls	r2, r2, #31
.Ltmp203:
	@DEBUG_VALUE: CLK_WaitClockReady:u32TimeOutCnt <- [DW_OP_constu 2, DW_OP_minus, DW_OP_stack_value] $r1
	bne	.LBB15_19
.Ltmp204:
@ %bb.14:                               @   in Loop: Header=BB15_11 Depth=1
	@DEBUG_VALUE: CLK_WaitClockReady:u32TimeOutCnt <- [DW_OP_constu 2, DW_OP_minus, DW_OP_stack_value] $r1
	@DEBUG_VALUE: CLK_WaitClockReady:u32Ret <- 1
	@DEBUG_VALUE: CLK_WaitClockReady:u32ClkMask <- 1
	@DEBUG_VALUE: CLK_EnablePLL:u32PllFreq <- $r4
	@DEBUG_VALUE: CLK_EnablePLL:u32PllClkSrc <- $r0
	cbz	r1, .LBB15_19
.Ltmp205:
@ %bb.15:                               @   in Loop: Header=BB15_11 Depth=1
	@DEBUG_VALUE: CLK_WaitClockReady:u32TimeOutCnt <- [DW_OP_constu 2, DW_OP_minus, DW_OP_stack_value] $r1
	@DEBUG_VALUE: CLK_WaitClockReady:u32Ret <- 1
	@DEBUG_VALUE: CLK_WaitClockReady:u32ClkMask <- 1
	@DEBUG_VALUE: CLK_EnablePLL:u32PllFreq <- $r4
	@DEBUG_VALUE: CLK_EnablePLL:u32PllClkSrc <- $r0
	@DEBUG_VALUE: CLK_WaitClockReady:u32TimeOutCnt <- [DW_OP_constu 2, DW_OP_minus, DW_OP_stack_value] $r1
	.loc	2 974 17                        @ Library/StdDriver/src/clk.c:974:17
	ldr	r2, [r6]
	.loc	2 974 5                         @ Library/StdDriver/src/clk.c:974:5
	lsls	r2, r2, #31
.Ltmp206:
	@DEBUG_VALUE: CLK_WaitClockReady:u32TimeOutCnt <- [DW_OP_constu 3, DW_OP_minus, DW_OP_stack_value] $r1
	bne	.LBB15_19
.Ltmp207:
@ %bb.16:                               @   in Loop: Header=BB15_11 Depth=1
	@DEBUG_VALUE: CLK_WaitClockReady:u32TimeOutCnt <- [DW_OP_constu 3, DW_OP_minus, DW_OP_stack_value] $r1
	@DEBUG_VALUE: CLK_WaitClockReady:u32Ret <- 1
	@DEBUG_VALUE: CLK_WaitClockReady:u32ClkMask <- 1
	@DEBUG_VALUE: CLK_EnablePLL:u32PllFreq <- $r4
	@DEBUG_VALUE: CLK_EnablePLL:u32PllClkSrc <- $r0
	adds	r3, r1, #1
	beq	.LBB15_19
.Ltmp208:
@ %bb.17:                               @   in Loop: Header=BB15_11 Depth=1
	@DEBUG_VALUE: CLK_WaitClockReady:u32TimeOutCnt <- [DW_OP_constu 3, DW_OP_minus, DW_OP_stack_value] $r1
	@DEBUG_VALUE: CLK_WaitClockReady:u32Ret <- 1
	@DEBUG_VALUE: CLK_WaitClockReady:u32ClkMask <- 1
	@DEBUG_VALUE: CLK_EnablePLL:u32PllFreq <- $r4
	@DEBUG_VALUE: CLK_EnablePLL:u32PllClkSrc <- $r0
	@DEBUG_VALUE: CLK_WaitClockReady:u32TimeOutCnt <- [DW_OP_constu 3, DW_OP_minus, DW_OP_stack_value] $r1
	.loc	2 974 17                        @ Library/StdDriver/src/clk.c:974:17
	ldr	r2, [r6]
.Ltmp209:
	@DEBUG_VALUE: CLK_WaitClockReady:u32TimeOutCnt <- [DW_OP_LLVM_arg 0, DW_OP_consts 2, DW_OP_consts 18446744073709551615, DW_OP_LLVM_arg 0, DW_OP_consts 2, DW_OP_div, DW_OP_mul, DW_OP_plus, DW_OP_minus, DW_OP_consts 4, DW_OP_div, DW_OP_consts 18446744073709551612, DW_OP_mul, DW_OP_consts 18446744073709551612, DW_OP_LLVM_arg 0, DW_OP_consts 2, DW_OP_div, DW_OP_plus, DW_OP_plus, DW_OP_stack_value] undef
	.loc	2 974 5                         @ Library/StdDriver/src/clk.c:974:5
	lsls	r2, r2, #31
	bne	.LBB15_19
.Ltmp210:
@ %bb.18:                               @   in Loop: Header=BB15_11 Depth=1
	@DEBUG_VALUE: CLK_WaitClockReady:u32Ret <- 1
	@DEBUG_VALUE: CLK_WaitClockReady:u32ClkMask <- 1
	@DEBUG_VALUE: CLK_EnablePLL:u32PllFreq <- $r4
	@DEBUG_VALUE: CLK_EnablePLL:u32PllClkSrc <- $r0
	adds	r3, r1, #2
	add.w	r1, r1, #4
	bne	.LBB15_11
.Ltmp211:
.LBB15_19:
	@DEBUG_VALUE: CLK_EnablePLL:u32PllFreq <- $r4
	@DEBUG_VALUE: CLK_EnablePLL:u32PllClkSrc <- $r0
	.loc	2 0 5                           @ Library/StdDriver/src/clk.c:0:5
	movw	r1, #3968
	movt	r1, #64773
.Ltmp212:
	@DEBUG_VALUE: CLK_EnablePLL:u32CLK_SRC <- $r11
	@DEBUG_VALUE: CLK_EnablePLL:u32PllSrcClk <- 12000000
	movw	r3, #29824
.Ltmp213:
	.loc	2 838 36 is_stmt 1              @ Library/StdDriver/src/clk.c:838:36
	add	r1, r4
	movt	r3, #6866
	cmp	r1, r3
	bhi.w	.LBB15_67
.Ltmp214:
@ %bb.20:
	@DEBUG_VALUE: CLK_EnablePLL:u32PllSrcClk <- 12000000
	@DEBUG_VALUE: CLK_EnablePLL:u32CLK_SRC <- $r11
	@DEBUG_VALUE: CLK_EnablePLL:u32PllFreq <- $r4
	@DEBUG_VALUE: CLK_EnablePLL:u32PllClkSrc <- $r0
	.loc	2 0 36 is_stmt 0                @ Library/StdDriver/src/clk.c:0:36
	movw	r5, #26817
	movs	r0, #1
.Ltmp215:
	@DEBUG_VALUE: CLK_EnablePLL:u32PllClkSrc <- [DW_OP_LLVM_entry_value 1] $r0
	movt	r5, #1144
.Ltmp216:
	@DEBUG_VALUE: CLK_EnablePLL:u32NO <- 1
	@DEBUG_VALUE: CLK_EnablePLL:u32Min <- -1
	@DEBUG_VALUE: CLK_EnablePLL:u32MinNF <- 0
	@DEBUG_VALUE: CLK_EnablePLL:u32MinNR <- 0
	@DEBUG_VALUE: CLK_EnablePLL:u32MinNO <- 0
	@DEBUG_VALUE: CLK_EnablePLL:u32PllFreq <- $r4
	lsls	r2, r4, #1
	lsls	r3, r4, #2
	str	r0, [sp, #156]                  @ 4-byte Spill
	mov.w	r0, #-1
	mov.w	r12, #0
	movs	r1, #0
	movs	r7, #0
	strd	r7, r7, [sp, #148]              @ 8-byte Folded Spill
	strd	r3, r2, [sp]                    @ 8-byte Folded Spill
.Ltmp217:
.LBB15_21:                              @ =>This Loop Header: Depth=1
                                        @     Child Loop BB15_26 Depth 2
                                        @       Child Loop BB15_30 Depth 3
	@DEBUG_VALUE: CLK_EnablePLL:u32PllClkSrc <- [DW_OP_LLVM_entry_value 1] $r0
	@DEBUG_VALUE: CLK_EnablePLL:u32PllSrcClk <- 12000000
	@DEBUG_VALUE: CLK_EnablePLL:u32CLK_SRC <- $r11
	@DEBUG_VALUE: CLK_EnablePLL:u32PllFreq <- $r4
	@DEBUG_VALUE: CLK_EnablePLL:u32PllFreq <- $r4
	@DEBUG_VALUE: CLK_EnablePLL:u32MinNO <- $r1
	@DEBUG_VALUE: CLK_EnablePLL:u32MinNR <- [DW_OP_plus_uconst 152] [$sp+0]
	@DEBUG_VALUE: CLK_EnablePLL:u32MinNF <- [DW_OP_plus_uconst 148] [$sp+0]
	@DEBUG_VALUE: CLK_EnablePLL:u32Min <- $r0
	@DEBUG_VALUE: CLK_EnablePLL:u32NO <- [DW_OP_plus_uconst 156] [$sp+0]
	.loc	2 856 17 is_stmt 1              @ Library/StdDriver/src/clk.c:856:17
	ldr	r7, [sp, #156]                  @ 4-byte Reload
.Ltmp218:
	@DEBUG_VALUE: CLK_EnablePLL:u32NO <- $r7
	cmp	r7, #2
.Ltmp219:
	@DEBUG_VALUE: CLK_EnablePLL:u32NO <- [DW_OP_plus_uconst 156] [$sp+0]
	beq	.LBB15_24
.Ltmp220:
@ %bb.22:                               @   in Loop: Header=BB15_21 Depth=1
	@DEBUG_VALUE: CLK_EnablePLL:u32NO <- [DW_OP_plus_uconst 156] [$sp+0]
	@DEBUG_VALUE: CLK_EnablePLL:u32Min <- $r0
	@DEBUG_VALUE: CLK_EnablePLL:u32MinNF <- [DW_OP_plus_uconst 148] [$sp+0]
	@DEBUG_VALUE: CLK_EnablePLL:u32MinNR <- [DW_OP_plus_uconst 152] [$sp+0]
	@DEBUG_VALUE: CLK_EnablePLL:u32MinNO <- $r1
	@DEBUG_VALUE: CLK_EnablePLL:u32PllClkSrc <- [DW_OP_LLVM_entry_value 1] $r0
	@DEBUG_VALUE: CLK_EnablePLL:u32PllSrcClk <- 12000000
	@DEBUG_VALUE: CLK_EnablePLL:u32CLK_SRC <- $r11
	@DEBUG_VALUE: CLK_EnablePLL:u32PllFreq <- $r4
	ldr	r7, [sp, #156]                  @ 4-byte Reload
	cmp	r7, #3
	beq.w	.LBB15_65
.Ltmp221:
@ %bb.23:                               @   in Loop: Header=BB15_21 Depth=1
	@DEBUG_VALUE: CLK_EnablePLL:u32NO <- [DW_OP_plus_uconst 156] [$sp+0]
	@DEBUG_VALUE: CLK_EnablePLL:u32Min <- $r0
	@DEBUG_VALUE: CLK_EnablePLL:u32MinNF <- [DW_OP_plus_uconst 148] [$sp+0]
	@DEBUG_VALUE: CLK_EnablePLL:u32MinNR <- [DW_OP_plus_uconst 152] [$sp+0]
	@DEBUG_VALUE: CLK_EnablePLL:u32MinNO <- $r1
	@DEBUG_VALUE: CLK_EnablePLL:u32PllClkSrc <- [DW_OP_LLVM_entry_value 1] $r0
	@DEBUG_VALUE: CLK_EnablePLL:u32PllSrcClk <- 12000000
	@DEBUG_VALUE: CLK_EnablePLL:u32CLK_SRC <- $r11
	@DEBUG_VALUE: CLK_EnablePLL:u32PllFreq <- $r4
	ldr	r2, [sp, #156]                  @ 4-byte Reload
	cmp	r2, #4
.Ltmp222:
	@DEBUG_VALUE: CLK_EnablePLL:u32PllFreq <- $r3
	.loc	2 0 17 is_stmt 0                @ Library/StdDriver/src/clk.c:0:17
	it	eq
	moveq	r4, r3
.Ltmp223:
	@DEBUG_VALUE: CLK_EnablePLL:u32PllFreq <- $r4
	b	.LBB15_25
.Ltmp224:
.LBB15_24:                              @   in Loop: Header=BB15_21 Depth=1
	@DEBUG_VALUE: CLK_EnablePLL:u32NO <- [DW_OP_plus_uconst 156] [$sp+0]
	@DEBUG_VALUE: CLK_EnablePLL:u32Min <- $r0
	@DEBUG_VALUE: CLK_EnablePLL:u32MinNF <- [DW_OP_plus_uconst 148] [$sp+0]
	@DEBUG_VALUE: CLK_EnablePLL:u32MinNR <- [DW_OP_plus_uconst 152] [$sp+0]
	@DEBUG_VALUE: CLK_EnablePLL:u32MinNO <- $r1
	@DEBUG_VALUE: CLK_EnablePLL:u32PllClkSrc <- [DW_OP_LLVM_entry_value 1] $r0
	@DEBUG_VALUE: CLK_EnablePLL:u32PllSrcClk <- 12000000
	@DEBUG_VALUE: CLK_EnablePLL:u32CLK_SRC <- $r11
	@DEBUG_VALUE: CLK_EnablePLL:u32PllFreq <- $r4
	@DEBUG_VALUE: CLK_EnablePLL:u32PllFreq <- [DW_OP_plus_uconst 4] [$sp+0]
	mov	r4, r2
.Ltmp225:
.LBB15_25:                              @   in Loop: Header=BB15_21 Depth=1
	@DEBUG_VALUE: CLK_EnablePLL:u32NO <- [DW_OP_plus_uconst 156] [$sp+0]
	@DEBUG_VALUE: CLK_EnablePLL:u32Min <- $r0
	@DEBUG_VALUE: CLK_EnablePLL:u32MinNF <- [DW_OP_plus_uconst 148] [$sp+0]
	@DEBUG_VALUE: CLK_EnablePLL:u32MinNR <- [DW_OP_plus_uconst 152] [$sp+0]
	@DEBUG_VALUE: CLK_EnablePLL:u32MinNO <- $r1
	@DEBUG_VALUE: CLK_EnablePLL:u32PllClkSrc <- [DW_OP_LLVM_entry_value 1] $r0
	@DEBUG_VALUE: CLK_EnablePLL:u32PllSrcClk <- 12000000
	@DEBUG_VALUE: CLK_EnablePLL:u32CLK_SRC <- $r11
	@DEBUG_VALUE: CLK_EnablePLL:u32PllFreq <- $r4
	@DEBUG_VALUE: CLK_EnablePLL:u32MinNO <- $r1
	@DEBUG_VALUE: CLK_EnablePLL:u32MinNR <- [DW_OP_plus_uconst 152] [$sp+0]
	@DEBUG_VALUE: CLK_EnablePLL:u32MinNF <- [DW_OP_plus_uconst 148] [$sp+0]
	@DEBUG_VALUE: CLK_EnablePLL:u32Min <- $r0
	@DEBUG_VALUE: CLK_EnablePLL:u32NR <- 1
	.loc	2 871 17 is_stmt 1              @ Library/StdDriver/src/clk.c:871:17
	sub.w	r2, r12, r4, lsr #2
	lsr.w	r9, r4, #2
	str	r2, [sp, #12]                   @ 4-byte Spill
	movs	r2, #1
	str	r4, [sp, #8]                    @ 4-byte Spill
.Ltmp226:
	@DEBUG_VALUE: CLK_EnablePLL:u32PllFreq <- [DW_OP_plus_uconst 8] [$sp+0]
	@DEBUG_VALUE: CLK_EnablePLL:u32PllFreq <- [DW_OP_plus_uconst 8] [$sp+0]
.LBB15_26:                              @   Parent Loop BB15_21 Depth=1
                                        @ =>  This Loop Header: Depth=2
                                        @       Child Loop BB15_30 Depth 3
	@DEBUG_VALUE: CLK_EnablePLL:u32PllFreq <- [DW_OP_plus_uconst 8] [$sp+0]
	@DEBUG_VALUE: CLK_EnablePLL:u32NO <- [DW_OP_plus_uconst 156] [$sp+0]
	@DEBUG_VALUE: CLK_EnablePLL:u32Min <- $r0
	@DEBUG_VALUE: CLK_EnablePLL:u32MinNF <- [DW_OP_plus_uconst 148] [$sp+0]
	@DEBUG_VALUE: CLK_EnablePLL:u32MinNR <- [DW_OP_plus_uconst 152] [$sp+0]
	@DEBUG_VALUE: CLK_EnablePLL:u32MinNO <- $r1
	@DEBUG_VALUE: CLK_EnablePLL:u32PllClkSrc <- [DW_OP_LLVM_entry_value 1] $r0
	@DEBUG_VALUE: CLK_EnablePLL:u32PllSrcClk <- 12000000
	@DEBUG_VALUE: CLK_EnablePLL:u32CLK_SRC <- $r11
	@DEBUG_VALUE: CLK_EnablePLL:u32MinNO <- $r1
	@DEBUG_VALUE: CLK_EnablePLL:u32MinNR <- [DW_OP_plus_uconst 152] [$sp+0]
	@DEBUG_VALUE: CLK_EnablePLL:u32MinNF <- [DW_OP_plus_uconst 148] [$sp+0]
	@DEBUG_VALUE: CLK_EnablePLL:u32Min <- $r0
	@DEBUG_VALUE: CLK_EnablePLL:u32NR <- $r2
	@DEBUG_VALUE: CLK_EnablePLL:u32Tmp <- undef
	.loc	2 0 17 is_stmt 0                @ Library/StdDriver/src/clk.c:0:17
	str	r1, [sp, #16]                   @ 4-byte Spill
.Ltmp227:
	@DEBUG_VALUE: CLK_EnablePLL:u32MinNO <- [DW_OP_plus_uconst 16] [$sp+0]
	@DEBUG_VALUE: CLK_EnablePLL:u32MinNO <- [DW_OP_plus_uconst 16] [$sp+0]
	@DEBUG_VALUE: CLK_EnablePLL:u32MinNO <- [DW_OP_plus_uconst 16] [$sp+0]
	.loc	2 880 46 is_stmt 1              @ Library/StdDriver/src/clk.c:880:46
	movw	r1, #65534
	movt	r1, #32767
	ands	r1, r2
	cmp	r1, #2
	bne.w	.LBB15_61
.Ltmp228:
@ %bb.27:                               @   in Loop: Header=BB15_26 Depth=2
	@DEBUG_VALUE: CLK_EnablePLL:u32MinNO <- [DW_OP_plus_uconst 16] [$sp+0]
	@DEBUG_VALUE: CLK_EnablePLL:u32NR <- $r2
	@DEBUG_VALUE: CLK_EnablePLL:u32PllFreq <- [DW_OP_plus_uconst 8] [$sp+0]
	@DEBUG_VALUE: CLK_EnablePLL:u32NO <- [DW_OP_plus_uconst 156] [$sp+0]
	@DEBUG_VALUE: CLK_EnablePLL:u32Min <- $r0
	@DEBUG_VALUE: CLK_EnablePLL:u32MinNF <- [DW_OP_plus_uconst 148] [$sp+0]
	@DEBUG_VALUE: CLK_EnablePLL:u32MinNR <- [DW_OP_plus_uconst 152] [$sp+0]
	@DEBUG_VALUE: CLK_EnablePLL:u32PllClkSrc <- [DW_OP_LLVM_entry_value 1] $r0
	@DEBUG_VALUE: CLK_EnablePLL:u32PllSrcClk <- 12000000
	@DEBUG_VALUE: CLK_EnablePLL:u32CLK_SRC <- $r11
	@DEBUG_VALUE: CLK_EnablePLL:u32MinNO <- [DW_OP_plus_uconst 16] [$sp+0]
	@DEBUG_VALUE: CLK_EnablePLL:u32MinNR <- [DW_OP_plus_uconst 152] [$sp+0]
	@DEBUG_VALUE: CLK_EnablePLL:u32MinNF <- [DW_OP_plus_uconst 148] [$sp+0]
	@DEBUG_VALUE: CLK_EnablePLL:u32Min <- $r0
	@DEBUG_VALUE: CLK_EnablePLL:u32Tmp <- undef
	@DEBUG_VALUE: CLK_EnablePLL:u32NF <- 2
	.loc	2 889 43                        @ Library/StdDriver/src/clk.c:889:43
	movw	r1, #6912
	movt	r1, #183
	udiv	r3, r1, r2
	mov.w	lr, #0
	lsrs	r4, r3, #1
	sub.w	r1, r4, r4, lsl #2
.Ltmp229:
	.loc	2 0 0 is_stmt 0                 @ Library/StdDriver/src/clk.c:0:0
	str	r1, [sp, #108]                  @ 4-byte Spill
	lsls	r1, r4, #3
	ldr	r7, [sp, #12]                   @ 4-byte Reload
.Ltmp230:
	.loc	2 889 43                        @ Library/StdDriver/src/clk.c:889:43
	str	r1, [sp, #144]                  @ 4-byte Spill
	sub.w	r1, lr, r4, lsl #3
	str	r1, [sp, #36]                   @ 4-byte Spill
	add.w	r1, r7, r4, lsl #3
	str	r1, [sp, #32]                   @ 4-byte Spill
	movw	r1, #3968
	movt	r1, #64773
.Ltmp231:
	.loc	2 887 56 is_stmt 1              @ Library/StdDriver/src/clk.c:887:56
	add.w	r10, r1, r4, lsl #3
.Ltmp232:
	.loc	2 889 43                        @ Library/StdDriver/src/clk.c:889:43
	sub.w	r1, lr, r4, lsl #2
	str.w	r10, [sp, #116]                 @ 4-byte Spill
	str	r1, [sp, #84]                   @ 4-byte Spill
	lsls	r1, r4, #2
	movw	r10, #3968
	str	r1, [sp, #80]                   @ 4-byte Spill
	add.w	r1, r7, r4, lsl #2
	movt	r10, #64773
.Ltmp233:
	.loc	2 887 56                        @ Library/StdDriver/src/clk.c:887:56
	str	r1, [sp, #76]                   @ 4-byte Spill
	add.w	r1, r10, r4, lsl #2
	str	r1, [sp, #132]                  @ 4-byte Spill
.Ltmp234:
	.loc	2 889 43                        @ Library/StdDriver/src/clk.c:889:43
	ldr	r1, [sp, #144]                  @ 4-byte Reload
	add.w	r8, r4, r4, lsl #1
	sub.w	r6, r4, r4, lsl #3
	add.w	r12, r4, r4, lsl #3
	str	r6, [sp, #48]                   @ 4-byte Spill
	add.w	r6, r4, r4, lsl #2
	sub.w	r1, r1, r3, lsr #1
.Ltmp235:
	.loc	2 887 56                        @ Library/StdDriver/src/clk.c:887:56
	bic	r4, r3, #1
.Ltmp236:
	.loc	2 889 43                        @ Library/StdDriver/src/clk.c:889:43
	add.w	r3, r7, r8
.Ltmp237:
	.loc	2 887 56                        @ Library/StdDriver/src/clk.c:887:56
	str	r3, [sp, #88]                   @ 4-byte Spill
	add.w	r3, r8, r10
.Ltmp238:
	.loc	2 889 43                        @ Library/StdDriver/src/clk.c:889:43
	str	r3, [sp, #136]                  @ 4-byte Spill
	rsb.w	r3, r12, #0
	str	r3, [sp, #24]                   @ 4-byte Spill
	add.w	r3, r7, r12
	str	r3, [sp, #20]                   @ 4-byte Spill
.Ltmp239:
	.loc	2 887 56                        @ Library/StdDriver/src/clk.c:887:56
	add.w	r3, r12, r10
.Ltmp240:
	.loc	2 889 43                        @ Library/StdDriver/src/clk.c:889:43
	str	r3, [sp, #112]                  @ 4-byte Spill
	adds	r3, r7, r1
	strd	r3, r1, [sp, #40]               @ 8-byte Folded Spill
.Ltmp241:
	.loc	2 887 56                        @ Library/StdDriver/src/clk.c:887:56
	add	r1, r10
	str	r1, [sp, #120]                  @ 4-byte Spill
.Ltmp242:
	.loc	2 889 43                        @ Library/StdDriver/src/clk.c:889:43
	ldr	r1, [sp, #108]                  @ 4-byte Reload
	str.w	r12, [sp, #28]                  @ 4-byte Spill
	lsls	r1, r1, #1
	str	r1, [sp, #60]                   @ 4-byte Spill
	lsl.w	r1, r8, #1
	str	r1, [sp, #56]                   @ 4-byte Spill
	add.w	r1, r7, r8, lsl #1
	str	r1, [sp, #52]                   @ 4-byte Spill
.Ltmp243:
	.loc	2 887 56                        @ Library/StdDriver/src/clk.c:887:56
	add.w	r1, r10, r8, lsl #1
.Ltmp244:
	.loc	2 889 43                        @ Library/StdDriver/src/clk.c:889:43
	str	r1, [sp, #124]                  @ 4-byte Spill
	rsbs	r1, r6, #0
	str	r1, [sp, #68]                   @ 4-byte Spill
	adds	r1, r7, r6
	str	r1, [sp, #64]                   @ 4-byte Spill
.Ltmp245:
	.loc	2 887 56                        @ Library/StdDriver/src/clk.c:887:56
	add.w	r1, r6, r10
	str	r1, [sp, #128]                  @ 4-byte Spill
	add.w	r1, r4, r10
.Ltmp246:
	.loc	2 889 43                        @ Library/StdDriver/src/clk.c:889:43
	str	r1, [sp, #140]                  @ 4-byte Spill
	rsbs	r1, r4, #0
	strd	r1, r4, [sp, #100]              @ 8-byte Folded Spill
	adds	r1, r7, r4
	str	r1, [sp, #96]                   @ 4-byte Spill
	ldr	r1, [sp, #16]                   @ 4-byte Reload
.Ltmp247:
	@DEBUG_VALUE: CLK_EnablePLL:u32MinNO <- $r1
	.loc	2 0 43 is_stmt 0                @ Library/StdDriver/src/clk.c:0:43
	movs	r4, #9
	mov	r12, r9
	str.w	r8, [sp, #92]                   @ 4-byte Spill
	str	r6, [sp, #72]                   @ 4-byte Spill
	b	.LBB15_30
.Ltmp248:
	.p2align	2
.LBB15_28:                              @   in Loop: Header=BB15_30 Depth=3
	@DEBUG_VALUE: CLK_EnablePLL:u32NF <- $r4
	@DEBUG_VALUE: CLK_EnablePLL:u32PllFreq <- [DW_OP_plus_uconst 8] [$sp+0]
	@DEBUG_VALUE: CLK_EnablePLL:u32NO <- [DW_OP_plus_uconst 156] [$sp+0]
	@DEBUG_VALUE: CLK_EnablePLL:u32Min <- $r0
	@DEBUG_VALUE: CLK_EnablePLL:u32MinNF <- [DW_OP_plus_uconst 148] [$sp+0]
	@DEBUG_VALUE: CLK_EnablePLL:u32MinNR <- [DW_OP_plus_uconst 152] [$sp+0]
	@DEBUG_VALUE: CLK_EnablePLL:u32MinNO <- $r1
	@DEBUG_VALUE: CLK_EnablePLL:u32PllClkSrc <- [DW_OP_LLVM_entry_value 1] $r0
	@DEBUG_VALUE: CLK_EnablePLL:u32PllSrcClk <- 12000000
	@DEBUG_VALUE: CLK_EnablePLL:u32CLK_SRC <- $r11
	mov	r9, r10
.Ltmp249:
.LBB15_29:                              @   in Loop: Header=BB15_30 Depth=3
	@DEBUG_VALUE: CLK_EnablePLL:u32NF <- $r4
	@DEBUG_VALUE: CLK_EnablePLL:u32PllFreq <- [DW_OP_plus_uconst 8] [$sp+0]
	@DEBUG_VALUE: CLK_EnablePLL:u32NO <- [DW_OP_plus_uconst 156] [$sp+0]
	@DEBUG_VALUE: CLK_EnablePLL:u32Min <- $r0
	@DEBUG_VALUE: CLK_EnablePLL:u32PllClkSrc <- [DW_OP_LLVM_entry_value 1] $r0
	@DEBUG_VALUE: CLK_EnablePLL:u32PllSrcClk <- 12000000
	@DEBUG_VALUE: CLK_EnablePLL:u32CLK_SRC <- $r11
	@DEBUG_VALUE: CLK_EnablePLL:u32MinNO <- $r1
	@DEBUG_VALUE: CLK_EnablePLL:u32MinNR <- [DW_OP_plus_uconst 152] [$sp+0]
	@DEBUG_VALUE: CLK_EnablePLL:u32MinNF <- [DW_OP_plus_uconst 148] [$sp+0]
	@DEBUG_VALUE: CLK_EnablePLL:u32Min <- $r0
	@DEBUG_VALUE: CLK_EnablePLL:u32NF <- [DW_OP_plus_uconst 1, DW_OP_stack_value] $r4
	.loc	2 882 48 is_stmt 1              @ Library/StdDriver/src/clk.c:882:48
	ldr	r2, [sp, #144]                  @ 4-byte Reload
	adds	r4, #8
.Ltmp250:
	sub.w	r12, r12, r2
.Ltmp251:
	.loc	2 882 25 is_stmt 0              @ Library/StdDriver/src/clk.c:882:25
	movw	r2, #521
	cmp	r4, r2
	mov	lr, r8
	mov	r2, r3
	beq.w	.LBB15_62
.Ltmp252:
.LBB15_30:                              @   Parent Loop BB15_21 Depth=1
                                        @     Parent Loop BB15_26 Depth=2
                                        @ =>    This Inner Loop Header: Depth=3
	@DEBUG_VALUE: CLK_EnablePLL:u32PllFreq <- [DW_OP_plus_uconst 8] [$sp+0]
	@DEBUG_VALUE: CLK_EnablePLL:u32NO <- [DW_OP_plus_uconst 156] [$sp+0]
	@DEBUG_VALUE: CLK_EnablePLL:u32Min <- $r0
	@DEBUG_VALUE: CLK_EnablePLL:u32MinNF <- [DW_OP_plus_uconst 148] [$sp+0]
	@DEBUG_VALUE: CLK_EnablePLL:u32MinNR <- [DW_OP_plus_uconst 152] [$sp+0]
	@DEBUG_VALUE: CLK_EnablePLL:u32MinNO <- $r1
	@DEBUG_VALUE: CLK_EnablePLL:u32PllClkSrc <- [DW_OP_LLVM_entry_value 1] $r0
	@DEBUG_VALUE: CLK_EnablePLL:u32PllSrcClk <- 12000000
	@DEBUG_VALUE: CLK_EnablePLL:u32CLK_SRC <- $r11
	@DEBUG_VALUE: CLK_EnablePLL:u32MinNO <- $r1
	@DEBUG_VALUE: CLK_EnablePLL:u32MinNR <- [DW_OP_plus_uconst 152] [$sp+0]
	@DEBUG_VALUE: CLK_EnablePLL:u32MinNF <- [DW_OP_plus_uconst 148] [$sp+0]
	@DEBUG_VALUE: CLK_EnablePLL:u32Min <- $r0
	@DEBUG_VALUE: CLK_EnablePLL:u32NF <- [DW_OP_constu 7, DW_OP_minus, DW_OP_stack_value] $r4
	@DEBUG_VALUE: CLK_EnablePLL:u32Tmp2 <- undef
	.loc	2 887 56 is_stmt 1              @ Library/StdDriver/src/clk.c:887:56
	ldr	r3, [sp, #140]                  @ 4-byte Reload
	add	r3, lr
	cmp	r3, r5
	bhs	.LBB15_34
.Ltmp253:
@ %bb.31:                               @   in Loop: Header=BB15_30 Depth=3
	@DEBUG_VALUE: CLK_EnablePLL:u32NF <- [DW_OP_constu 7, DW_OP_minus, DW_OP_stack_value] $r4
	@DEBUG_VALUE: CLK_EnablePLL:u32PllFreq <- [DW_OP_plus_uconst 8] [$sp+0]
	@DEBUG_VALUE: CLK_EnablePLL:u32NO <- [DW_OP_plus_uconst 156] [$sp+0]
	@DEBUG_VALUE: CLK_EnablePLL:u32Min <- $r0
	@DEBUG_VALUE: CLK_EnablePLL:u32MinNF <- [DW_OP_plus_uconst 148] [$sp+0]
	@DEBUG_VALUE: CLK_EnablePLL:u32MinNR <- [DW_OP_plus_uconst 152] [$sp+0]
	@DEBUG_VALUE: CLK_EnablePLL:u32MinNO <- $r1
	@DEBUG_VALUE: CLK_EnablePLL:u32PllClkSrc <- [DW_OP_LLVM_entry_value 1] $r0
	@DEBUG_VALUE: CLK_EnablePLL:u32PllSrcClk <- 12000000
	@DEBUG_VALUE: CLK_EnablePLL:u32CLK_SRC <- $r11
	.loc	2 0 0 is_stmt 0                 @ Library/StdDriver/src/clk.c:0:0
	ldr	r3, [sp, #104]                  @ 4-byte Reload
.Ltmp254:
	.loc	2 889 43 is_stmt 1              @ Library/StdDriver/src/clk.c:889:43
	ldr	r6, [sp, #96]                   @ 4-byte Reload
.Ltmp255:
	.loc	2 0 0 is_stmt 0                 @ Library/StdDriver/src/clk.c:0:0
	add.w	r7, r3, lr
.Ltmp256:
	.loc	2 889 43                        @ Library/StdDriver/src/clk.c:889:43
	ldr	r3, [sp, #100]                  @ 4-byte Reload
	cmp	r7, r9
	add	r3, r12
	it	hi
	addhi.w	r3, r6, lr
.Ltmp257:
	@DEBUG_VALUE: CLK_EnablePLL:u32Tmp3 <- $r3
	.loc	2 890 36 is_stmt 1              @ Library/StdDriver/src/clk.c:890:36
	cmp	r3, r0
	bhs	.LBB15_34
.Ltmp258:
@ %bb.32:                               @   in Loop: Header=BB15_30 Depth=3
	@DEBUG_VALUE: CLK_EnablePLL:u32Tmp3 <- $r3
	@DEBUG_VALUE: CLK_EnablePLL:u32NF <- [DW_OP_constu 7, DW_OP_minus, DW_OP_stack_value] $r4
	@DEBUG_VALUE: CLK_EnablePLL:u32PllFreq <- [DW_OP_plus_uconst 8] [$sp+0]
	@DEBUG_VALUE: CLK_EnablePLL:u32NO <- [DW_OP_plus_uconst 156] [$sp+0]
	@DEBUG_VALUE: CLK_EnablePLL:u32Min <- $r0
	@DEBUG_VALUE: CLK_EnablePLL:u32MinNF <- [DW_OP_plus_uconst 148] [$sp+0]
	@DEBUG_VALUE: CLK_EnablePLL:u32MinNR <- [DW_OP_plus_uconst 152] [$sp+0]
	@DEBUG_VALUE: CLK_EnablePLL:u32MinNO <- $r1
	@DEBUG_VALUE: CLK_EnablePLL:u32PllClkSrc <- [DW_OP_LLVM_entry_value 1] $r0
	@DEBUG_VALUE: CLK_EnablePLL:u32PllSrcClk <- 12000000
	@DEBUG_VALUE: CLK_EnablePLL:u32CLK_SRC <- $r11
	.loc	2 898 40                        @ Library/StdDriver/src/clk.c:898:40
	cmp	r3, #0
.Ltmp259:
	.loc	2 0 0 is_stmt 0                 @ Library/StdDriver/src/clk.c:0:0
	sub.w	r1, r4, #7
.Ltmp260:
	@DEBUG_VALUE: CLK_EnablePLL:u32Min <- $r3
	@DEBUG_VALUE: CLK_EnablePLL:u32MinNF <- [DW_OP_constu 7, DW_OP_minus, DW_OP_stack_value] $r4
	@DEBUG_VALUE: CLK_EnablePLL:u32MinNR <- $r2
	@DEBUG_VALUE: CLK_EnablePLL:u32MinNO <- [DW_OP_plus_uconst 156] [$sp+0]
	.loc	2 898 40                        @ Library/StdDriver/src/clk.c:898:40
	str	r1, [sp, #148]                  @ 4-byte Spill
	beq.w	.LBB15_76
.Ltmp261:
@ %bb.33:                               @   in Loop: Header=BB15_30 Depth=3
	@DEBUG_VALUE: CLK_EnablePLL:u32MinNO <- [DW_OP_plus_uconst 156] [$sp+0]
	@DEBUG_VALUE: CLK_EnablePLL:u32MinNR <- $r2
	@DEBUG_VALUE: CLK_EnablePLL:u32MinNF <- [DW_OP_constu 7, DW_OP_minus, DW_OP_stack_value] $r4
	@DEBUG_VALUE: CLK_EnablePLL:u32Min <- $r3
	@DEBUG_VALUE: CLK_EnablePLL:u32Tmp3 <- $r3
	@DEBUG_VALUE: CLK_EnablePLL:u32NF <- [DW_OP_constu 7, DW_OP_minus, DW_OP_stack_value] $r4
	@DEBUG_VALUE: CLK_EnablePLL:u32PllFreq <- [DW_OP_plus_uconst 8] [$sp+0]
	@DEBUG_VALUE: CLK_EnablePLL:u32NO <- [DW_OP_plus_uconst 156] [$sp+0]
	@DEBUG_VALUE: CLK_EnablePLL:u32PllClkSrc <- [DW_OP_LLVM_entry_value 1] $r0
	@DEBUG_VALUE: CLK_EnablePLL:u32PllSrcClk <- 12000000
	@DEBUG_VALUE: CLK_EnablePLL:u32CLK_SRC <- $r11
	@DEBUG_VALUE: CLK_EnablePLL:u32Min <- $r3
	.loc	2 0 40                          @ Library/StdDriver/src/clk.c:0:40
	ldr	r1, [sp, #156]                  @ 4-byte Reload
	mov	r0, r3
.Ltmp262:
	@DEBUG_VALUE: CLK_EnablePLL:u32Min <- $r0
	str	r2, [sp, #152]                  @ 4-byte Spill
.Ltmp263:
.LBB15_34:                              @   in Loop: Header=BB15_30 Depth=3
	@DEBUG_VALUE: CLK_EnablePLL:u32NF <- [DW_OP_constu 7, DW_OP_minus, DW_OP_stack_value] $r4
	@DEBUG_VALUE: CLK_EnablePLL:u32PllFreq <- [DW_OP_plus_uconst 8] [$sp+0]
	@DEBUG_VALUE: CLK_EnablePLL:u32NO <- [DW_OP_plus_uconst 156] [$sp+0]
	@DEBUG_VALUE: CLK_EnablePLL:u32Min <- $r0
	@DEBUG_VALUE: CLK_EnablePLL:u32PllClkSrc <- [DW_OP_LLVM_entry_value 1] $r0
	@DEBUG_VALUE: CLK_EnablePLL:u32PllSrcClk <- 12000000
	@DEBUG_VALUE: CLK_EnablePLL:u32CLK_SRC <- $r11
	@DEBUG_VALUE: CLK_EnablePLL:u32MinNO <- $r1
	@DEBUG_VALUE: CLK_EnablePLL:u32MinNR <- [DW_OP_plus_uconst 152] [$sp+0]
	@DEBUG_VALUE: CLK_EnablePLL:u32MinNF <- [DW_OP_plus_uconst 148] [$sp+0]
	@DEBUG_VALUE: CLK_EnablePLL:u32Min <- $r0
	@DEBUG_VALUE: CLK_EnablePLL:u32NF <- [DW_OP_constu 6, DW_OP_minus, DW_OP_stack_value] $r4
	@DEBUG_VALUE: CLK_EnablePLL:u32Tmp2 <- undef
	.loc	2 887 56 is_stmt 1              @ Library/StdDriver/src/clk.c:887:56
	ldr	r3, [sp, #136]                  @ 4-byte Reload
	add	r3, lr
	cmp	r3, r5
	bhs	.LBB15_38
.Ltmp264:
@ %bb.35:                               @   in Loop: Header=BB15_30 Depth=3
	@DEBUG_VALUE: CLK_EnablePLL:u32NF <- [DW_OP_constu 6, DW_OP_minus, DW_OP_stack_value] $r4
	@DEBUG_VALUE: CLK_EnablePLL:u32PllFreq <- [DW_OP_plus_uconst 8] [$sp+0]
	@DEBUG_VALUE: CLK_EnablePLL:u32NO <- [DW_OP_plus_uconst 156] [$sp+0]
	@DEBUG_VALUE: CLK_EnablePLL:u32Min <- $r0
	@DEBUG_VALUE: CLK_EnablePLL:u32MinNF <- [DW_OP_plus_uconst 148] [$sp+0]
	@DEBUG_VALUE: CLK_EnablePLL:u32MinNR <- [DW_OP_plus_uconst 152] [$sp+0]
	@DEBUG_VALUE: CLK_EnablePLL:u32MinNO <- $r1
	@DEBUG_VALUE: CLK_EnablePLL:u32PllClkSrc <- [DW_OP_LLVM_entry_value 1] $r0
	@DEBUG_VALUE: CLK_EnablePLL:u32PllSrcClk <- 12000000
	@DEBUG_VALUE: CLK_EnablePLL:u32CLK_SRC <- $r11
	.loc	2 0 0 is_stmt 0                 @ Library/StdDriver/src/clk.c:0:0
	ldr	r3, [sp, #92]                   @ 4-byte Reload
.Ltmp265:
	.loc	2 889 43 is_stmt 1              @ Library/StdDriver/src/clk.c:889:43
	ldr	r6, [sp, #88]                   @ 4-byte Reload
.Ltmp266:
	.loc	2 0 0 is_stmt 0                 @ Library/StdDriver/src/clk.c:0:0
	add.w	r7, r3, lr
.Ltmp267:
	.loc	2 889 43                        @ Library/StdDriver/src/clk.c:889:43
	ldr	r3, [sp, #108]                  @ 4-byte Reload
	cmp	r7, r9
	add	r3, r12
	it	hi
	addhi.w	r3, r6, lr
.Ltmp268:
	@DEBUG_VALUE: CLK_EnablePLL:u32Tmp3 <- $r3
	.loc	2 890 36 is_stmt 1              @ Library/StdDriver/src/clk.c:890:36
	cmp	r3, r0
	bhs	.LBB15_38
.Ltmp269:
@ %bb.36:                               @   in Loop: Header=BB15_30 Depth=3
	@DEBUG_VALUE: CLK_EnablePLL:u32NF <- [DW_OP_constu 6, DW_OP_minus, DW_OP_stack_value] $r4
	@DEBUG_VALUE: CLK_EnablePLL:u32Tmp3 <- $r3
	@DEBUG_VALUE: CLK_EnablePLL:u32PllFreq <- [DW_OP_plus_uconst 8] [$sp+0]
	@DEBUG_VALUE: CLK_EnablePLL:u32NO <- [DW_OP_plus_uconst 156] [$sp+0]
	@DEBUG_VALUE: CLK_EnablePLL:u32Min <- $r0
	@DEBUG_VALUE: CLK_EnablePLL:u32MinNF <- [DW_OP_plus_uconst 148] [$sp+0]
	@DEBUG_VALUE: CLK_EnablePLL:u32MinNR <- [DW_OP_plus_uconst 152] [$sp+0]
	@DEBUG_VALUE: CLK_EnablePLL:u32MinNO <- $r1
	@DEBUG_VALUE: CLK_EnablePLL:u32PllClkSrc <- [DW_OP_LLVM_entry_value 1] $r0
	@DEBUG_VALUE: CLK_EnablePLL:u32PllSrcClk <- 12000000
	@DEBUG_VALUE: CLK_EnablePLL:u32CLK_SRC <- $r11
	.loc	2 898 40                        @ Library/StdDriver/src/clk.c:898:40
	cmp	r3, #0
.Ltmp270:
	.loc	2 0 0 is_stmt 0                 @ Library/StdDriver/src/clk.c:0:0
	sub.w	r1, r4, #6
.Ltmp271:
	@DEBUG_VALUE: CLK_EnablePLL:u32Min <- $r3
	@DEBUG_VALUE: CLK_EnablePLL:u32MinNF <- [DW_OP_constu 6, DW_OP_minus, DW_OP_stack_value] $r4
	@DEBUG_VALUE: CLK_EnablePLL:u32MinNR <- $r2
	@DEBUG_VALUE: CLK_EnablePLL:u32MinNO <- [DW_OP_plus_uconst 156] [$sp+0]
	.loc	2 898 40                        @ Library/StdDriver/src/clk.c:898:40
	str	r1, [sp, #148]                  @ 4-byte Spill
	beq.w	.LBB15_76
.Ltmp272:
@ %bb.37:                               @   in Loop: Header=BB15_30 Depth=3
	@DEBUG_VALUE: CLK_EnablePLL:u32MinNF <- [DW_OP_constu 6, DW_OP_minus, DW_OP_stack_value] $r4
	@DEBUG_VALUE: CLK_EnablePLL:u32NF <- [DW_OP_constu 6, DW_OP_minus, DW_OP_stack_value] $r4
	@DEBUG_VALUE: CLK_EnablePLL:u32MinNO <- [DW_OP_plus_uconst 156] [$sp+0]
	@DEBUG_VALUE: CLK_EnablePLL:u32MinNR <- $r2
	@DEBUG_VALUE: CLK_EnablePLL:u32Min <- $r3
	@DEBUG_VALUE: CLK_EnablePLL:u32Tmp3 <- $r3
	@DEBUG_VALUE: CLK_EnablePLL:u32PllFreq <- [DW_OP_plus_uconst 8] [$sp+0]
	@DEBUG_VALUE: CLK_EnablePLL:u32NO <- [DW_OP_plus_uconst 156] [$sp+0]
	@DEBUG_VALUE: CLK_EnablePLL:u32PllClkSrc <- [DW_OP_LLVM_entry_value 1] $r0
	@DEBUG_VALUE: CLK_EnablePLL:u32PllSrcClk <- 12000000
	@DEBUG_VALUE: CLK_EnablePLL:u32CLK_SRC <- $r11
	@DEBUG_VALUE: CLK_EnablePLL:u32Min <- $r3
	.loc	2 0 40                          @ Library/StdDriver/src/clk.c:0:40
	ldr	r1, [sp, #156]                  @ 4-byte Reload
	mov	r0, r3
.Ltmp273:
	@DEBUG_VALUE: CLK_EnablePLL:u32Min <- $r0
	str	r2, [sp, #152]                  @ 4-byte Spill
.Ltmp274:
.LBB15_38:                              @   in Loop: Header=BB15_30 Depth=3
	@DEBUG_VALUE: CLK_EnablePLL:u32NF <- [DW_OP_constu 6, DW_OP_minus, DW_OP_stack_value] $r4
	@DEBUG_VALUE: CLK_EnablePLL:u32PllFreq <- [DW_OP_plus_uconst 8] [$sp+0]
	@DEBUG_VALUE: CLK_EnablePLL:u32NO <- [DW_OP_plus_uconst 156] [$sp+0]
	@DEBUG_VALUE: CLK_EnablePLL:u32Min <- $r0
	@DEBUG_VALUE: CLK_EnablePLL:u32PllClkSrc <- [DW_OP_LLVM_entry_value 1] $r0
	@DEBUG_VALUE: CLK_EnablePLL:u32PllSrcClk <- 12000000
	@DEBUG_VALUE: CLK_EnablePLL:u32CLK_SRC <- $r11
	@DEBUG_VALUE: CLK_EnablePLL:u32MinNO <- $r1
	@DEBUG_VALUE: CLK_EnablePLL:u32MinNR <- [DW_OP_plus_uconst 152] [$sp+0]
	@DEBUG_VALUE: CLK_EnablePLL:u32MinNF <- [DW_OP_plus_uconst 148] [$sp+0]
	@DEBUG_VALUE: CLK_EnablePLL:u32Min <- $r0
	@DEBUG_VALUE: CLK_EnablePLL:u32NF <- [DW_OP_constu 5, DW_OP_minus, DW_OP_stack_value] $r4
	@DEBUG_VALUE: CLK_EnablePLL:u32Tmp2 <- undef
	.loc	2 887 56 is_stmt 1              @ Library/StdDriver/src/clk.c:887:56
	ldr	r3, [sp, #132]                  @ 4-byte Reload
	add	r3, lr
	cmp	r3, r5
	bhs	.LBB15_42
.Ltmp275:
@ %bb.39:                               @   in Loop: Header=BB15_30 Depth=3
	@DEBUG_VALUE: CLK_EnablePLL:u32NF <- [DW_OP_constu 5, DW_OP_minus, DW_OP_stack_value] $r4
	@DEBUG_VALUE: CLK_EnablePLL:u32PllFreq <- [DW_OP_plus_uconst 8] [$sp+0]
	@DEBUG_VALUE: CLK_EnablePLL:u32NO <- [DW_OP_plus_uconst 156] [$sp+0]
	@DEBUG_VALUE: CLK_EnablePLL:u32Min <- $r0
	@DEBUG_VALUE: CLK_EnablePLL:u32MinNF <- [DW_OP_plus_uconst 148] [$sp+0]
	@DEBUG_VALUE: CLK_EnablePLL:u32MinNR <- [DW_OP_plus_uconst 152] [$sp+0]
	@DEBUG_VALUE: CLK_EnablePLL:u32MinNO <- $r1
	@DEBUG_VALUE: CLK_EnablePLL:u32PllClkSrc <- [DW_OP_LLVM_entry_value 1] $r0
	@DEBUG_VALUE: CLK_EnablePLL:u32PllSrcClk <- 12000000
	@DEBUG_VALUE: CLK_EnablePLL:u32CLK_SRC <- $r11
	.loc	2 0 0 is_stmt 0                 @ Library/StdDriver/src/clk.c:0:0
	ldr	r3, [sp, #80]                   @ 4-byte Reload
.Ltmp276:
	.loc	2 889 43 is_stmt 1              @ Library/StdDriver/src/clk.c:889:43
	ldr	r6, [sp, #76]                   @ 4-byte Reload
.Ltmp277:
	.loc	2 0 0 is_stmt 0                 @ Library/StdDriver/src/clk.c:0:0
	add.w	r7, r3, lr
.Ltmp278:
	.loc	2 889 43                        @ Library/StdDriver/src/clk.c:889:43
	ldr	r3, [sp, #84]                   @ 4-byte Reload
	cmp	r7, r9
	add	r3, r12
	it	hi
	addhi.w	r3, r6, lr
.Ltmp279:
	@DEBUG_VALUE: CLK_EnablePLL:u32Tmp3 <- $r3
	.loc	2 890 36 is_stmt 1              @ Library/StdDriver/src/clk.c:890:36
	cmp	r3, r0
	bhs	.LBB15_42
.Ltmp280:
@ %bb.40:                               @   in Loop: Header=BB15_30 Depth=3
	@DEBUG_VALUE: CLK_EnablePLL:u32NF <- [DW_OP_constu 5, DW_OP_minus, DW_OP_stack_value] $r4
	@DEBUG_VALUE: CLK_EnablePLL:u32Tmp3 <- $r3
	@DEBUG_VALUE: CLK_EnablePLL:u32PllFreq <- [DW_OP_plus_uconst 8] [$sp+0]
	@DEBUG_VALUE: CLK_EnablePLL:u32NO <- [DW_OP_plus_uconst 156] [$sp+0]
	@DEBUG_VALUE: CLK_EnablePLL:u32Min <- $r0
	@DEBUG_VALUE: CLK_EnablePLL:u32MinNF <- [DW_OP_plus_uconst 148] [$sp+0]
	@DEBUG_VALUE: CLK_EnablePLL:u32MinNR <- [DW_OP_plus_uconst 152] [$sp+0]
	@DEBUG_VALUE: CLK_EnablePLL:u32MinNO <- $r1
	@DEBUG_VALUE: CLK_EnablePLL:u32PllClkSrc <- [DW_OP_LLVM_entry_value 1] $r0
	@DEBUG_VALUE: CLK_EnablePLL:u32PllSrcClk <- 12000000
	@DEBUG_VALUE: CLK_EnablePLL:u32CLK_SRC <- $r11
	.loc	2 898 40                        @ Library/StdDriver/src/clk.c:898:40
	cmp	r3, #0
.Ltmp281:
	.loc	2 0 0 is_stmt 0                 @ Library/StdDriver/src/clk.c:0:0
	sub.w	r1, r4, #5
.Ltmp282:
	@DEBUG_VALUE: CLK_EnablePLL:u32Min <- $r3
	@DEBUG_VALUE: CLK_EnablePLL:u32MinNF <- [DW_OP_constu 5, DW_OP_minus, DW_OP_stack_value] $r4
	@DEBUG_VALUE: CLK_EnablePLL:u32MinNR <- $r2
	@DEBUG_VALUE: CLK_EnablePLL:u32MinNO <- [DW_OP_plus_uconst 156] [$sp+0]
	.loc	2 898 40                        @ Library/StdDriver/src/clk.c:898:40
	str	r1, [sp, #148]                  @ 4-byte Spill
	beq.w	.LBB15_76
.Ltmp283:
@ %bb.41:                               @   in Loop: Header=BB15_30 Depth=3
	@DEBUG_VALUE: CLK_EnablePLL:u32MinNF <- [DW_OP_constu 5, DW_OP_minus, DW_OP_stack_value] $r4
	@DEBUG_VALUE: CLK_EnablePLL:u32NF <- [DW_OP_constu 5, DW_OP_minus, DW_OP_stack_value] $r4
	@DEBUG_VALUE: CLK_EnablePLL:u32MinNO <- [DW_OP_plus_uconst 156] [$sp+0]
	@DEBUG_VALUE: CLK_EnablePLL:u32MinNR <- $r2
	@DEBUG_VALUE: CLK_EnablePLL:u32Min <- $r3
	@DEBUG_VALUE: CLK_EnablePLL:u32Tmp3 <- $r3
	@DEBUG_VALUE: CLK_EnablePLL:u32PllFreq <- [DW_OP_plus_uconst 8] [$sp+0]
	@DEBUG_VALUE: CLK_EnablePLL:u32NO <- [DW_OP_plus_uconst 156] [$sp+0]
	@DEBUG_VALUE: CLK_EnablePLL:u32PllClkSrc <- [DW_OP_LLVM_entry_value 1] $r0
	@DEBUG_VALUE: CLK_EnablePLL:u32PllSrcClk <- 12000000
	@DEBUG_VALUE: CLK_EnablePLL:u32CLK_SRC <- $r11
	@DEBUG_VALUE: CLK_EnablePLL:u32Min <- $r3
	.loc	2 0 40                          @ Library/StdDriver/src/clk.c:0:40
	ldr	r1, [sp, #156]                  @ 4-byte Reload
	mov	r0, r3
.Ltmp284:
	@DEBUG_VALUE: CLK_EnablePLL:u32Min <- $r0
	str	r2, [sp, #152]                  @ 4-byte Spill
.Ltmp285:
.LBB15_42:                              @   in Loop: Header=BB15_30 Depth=3
	@DEBUG_VALUE: CLK_EnablePLL:u32NF <- [DW_OP_constu 5, DW_OP_minus, DW_OP_stack_value] $r4
	@DEBUG_VALUE: CLK_EnablePLL:u32PllFreq <- [DW_OP_plus_uconst 8] [$sp+0]
	@DEBUG_VALUE: CLK_EnablePLL:u32NO <- [DW_OP_plus_uconst 156] [$sp+0]
	@DEBUG_VALUE: CLK_EnablePLL:u32Min <- $r0
	@DEBUG_VALUE: CLK_EnablePLL:u32PllClkSrc <- [DW_OP_LLVM_entry_value 1] $r0
	@DEBUG_VALUE: CLK_EnablePLL:u32PllSrcClk <- 12000000
	@DEBUG_VALUE: CLK_EnablePLL:u32CLK_SRC <- $r11
	@DEBUG_VALUE: CLK_EnablePLL:u32MinNO <- $r1
	@DEBUG_VALUE: CLK_EnablePLL:u32MinNR <- [DW_OP_plus_uconst 152] [$sp+0]
	@DEBUG_VALUE: CLK_EnablePLL:u32MinNF <- [DW_OP_plus_uconst 148] [$sp+0]
	@DEBUG_VALUE: CLK_EnablePLL:u32Min <- $r0
	@DEBUG_VALUE: CLK_EnablePLL:u32NF <- [DW_OP_constu 4, DW_OP_minus, DW_OP_stack_value] $r4
	@DEBUG_VALUE: CLK_EnablePLL:u32Tmp2 <- undef
	.loc	2 887 56 is_stmt 1              @ Library/StdDriver/src/clk.c:887:56
	ldr	r3, [sp, #128]                  @ 4-byte Reload
	add	r3, lr
	cmp	r3, r5
	bhs	.LBB15_46
.Ltmp286:
@ %bb.43:                               @   in Loop: Header=BB15_30 Depth=3
	@DEBUG_VALUE: CLK_EnablePLL:u32NF <- [DW_OP_constu 4, DW_OP_minus, DW_OP_stack_value] $r4
	@DEBUG_VALUE: CLK_EnablePLL:u32PllFreq <- [DW_OP_plus_uconst 8] [$sp+0]
	@DEBUG_VALUE: CLK_EnablePLL:u32NO <- [DW_OP_plus_uconst 156] [$sp+0]
	@DEBUG_VALUE: CLK_EnablePLL:u32Min <- $r0
	@DEBUG_VALUE: CLK_EnablePLL:u32MinNF <- [DW_OP_plus_uconst 148] [$sp+0]
	@DEBUG_VALUE: CLK_EnablePLL:u32MinNR <- [DW_OP_plus_uconst 152] [$sp+0]
	@DEBUG_VALUE: CLK_EnablePLL:u32MinNO <- $r1
	@DEBUG_VALUE: CLK_EnablePLL:u32PllClkSrc <- [DW_OP_LLVM_entry_value 1] $r0
	@DEBUG_VALUE: CLK_EnablePLL:u32PllSrcClk <- 12000000
	@DEBUG_VALUE: CLK_EnablePLL:u32CLK_SRC <- $r11
	.loc	2 0 0 is_stmt 0                 @ Library/StdDriver/src/clk.c:0:0
	ldr	r3, [sp, #72]                   @ 4-byte Reload
.Ltmp287:
	.loc	2 889 43 is_stmt 1              @ Library/StdDriver/src/clk.c:889:43
	ldr	r6, [sp, #64]                   @ 4-byte Reload
.Ltmp288:
	.loc	2 0 0 is_stmt 0                 @ Library/StdDriver/src/clk.c:0:0
	add.w	r7, r3, lr
.Ltmp289:
	.loc	2 889 43                        @ Library/StdDriver/src/clk.c:889:43
	ldr	r3, [sp, #68]                   @ 4-byte Reload
	cmp	r7, r9
	add	r3, r12
	it	hi
	addhi.w	r3, r6, lr
.Ltmp290:
	@DEBUG_VALUE: CLK_EnablePLL:u32Tmp3 <- $r3
	.loc	2 890 36 is_stmt 1              @ Library/StdDriver/src/clk.c:890:36
	cmp	r3, r0
	bhs	.LBB15_46
.Ltmp291:
@ %bb.44:                               @   in Loop: Header=BB15_30 Depth=3
	@DEBUG_VALUE: CLK_EnablePLL:u32NF <- [DW_OP_constu 4, DW_OP_minus, DW_OP_stack_value] $r4
	@DEBUG_VALUE: CLK_EnablePLL:u32Tmp3 <- $r3
	@DEBUG_VALUE: CLK_EnablePLL:u32PllFreq <- [DW_OP_plus_uconst 8] [$sp+0]
	@DEBUG_VALUE: CLK_EnablePLL:u32NO <- [DW_OP_plus_uconst 156] [$sp+0]
	@DEBUG_VALUE: CLK_EnablePLL:u32Min <- $r0
	@DEBUG_VALUE: CLK_EnablePLL:u32MinNF <- [DW_OP_plus_uconst 148] [$sp+0]
	@DEBUG_VALUE: CLK_EnablePLL:u32MinNR <- [DW_OP_plus_uconst 152] [$sp+0]
	@DEBUG_VALUE: CLK_EnablePLL:u32MinNO <- $r1
	@DEBUG_VALUE: CLK_EnablePLL:u32PllClkSrc <- [DW_OP_LLVM_entry_value 1] $r0
	@DEBUG_VALUE: CLK_EnablePLL:u32PllSrcClk <- 12000000
	@DEBUG_VALUE: CLK_EnablePLL:u32CLK_SRC <- $r11
	.loc	2 898 40                        @ Library/StdDriver/src/clk.c:898:40
	cmp	r3, #0
.Ltmp292:
	.loc	2 0 0 is_stmt 0                 @ Library/StdDriver/src/clk.c:0:0
	sub.w	r1, r4, #4
.Ltmp293:
	@DEBUG_VALUE: CLK_EnablePLL:u32Min <- $r3
	@DEBUG_VALUE: CLK_EnablePLL:u32MinNF <- [DW_OP_constu 4, DW_OP_minus, DW_OP_stack_value] $r4
	@DEBUG_VALUE: CLK_EnablePLL:u32MinNR <- $r2
	@DEBUG_VALUE: CLK_EnablePLL:u32MinNO <- [DW_OP_plus_uconst 156] [$sp+0]
	.loc	2 898 40                        @ Library/StdDriver/src/clk.c:898:40
	str	r1, [sp, #148]                  @ 4-byte Spill
	beq.w	.LBB15_76
.Ltmp294:
@ %bb.45:                               @   in Loop: Header=BB15_30 Depth=3
	@DEBUG_VALUE: CLK_EnablePLL:u32MinNF <- [DW_OP_constu 4, DW_OP_minus, DW_OP_stack_value] $r4
	@DEBUG_VALUE: CLK_EnablePLL:u32NF <- [DW_OP_constu 4, DW_OP_minus, DW_OP_stack_value] $r4
	@DEBUG_VALUE: CLK_EnablePLL:u32MinNO <- [DW_OP_plus_uconst 156] [$sp+0]
	@DEBUG_VALUE: CLK_EnablePLL:u32MinNR <- $r2
	@DEBUG_VALUE: CLK_EnablePLL:u32Min <- $r3
	@DEBUG_VALUE: CLK_EnablePLL:u32Tmp3 <- $r3
	@DEBUG_VALUE: CLK_EnablePLL:u32PllFreq <- [DW_OP_plus_uconst 8] [$sp+0]
	@DEBUG_VALUE: CLK_EnablePLL:u32NO <- [DW_OP_plus_uconst 156] [$sp+0]
	@DEBUG_VALUE: CLK_EnablePLL:u32PllClkSrc <- [DW_OP_LLVM_entry_value 1] $r0
	@DEBUG_VALUE: CLK_EnablePLL:u32PllSrcClk <- 12000000
	@DEBUG_VALUE: CLK_EnablePLL:u32CLK_SRC <- $r11
	@DEBUG_VALUE: CLK_EnablePLL:u32Min <- $r3
	.loc	2 0 40                          @ Library/StdDriver/src/clk.c:0:40
	ldr	r1, [sp, #156]                  @ 4-byte Reload
	mov	r0, r3
.Ltmp295:
	@DEBUG_VALUE: CLK_EnablePLL:u32Min <- $r0
	str	r2, [sp, #152]                  @ 4-byte Spill
.Ltmp296:
.LBB15_46:                              @   in Loop: Header=BB15_30 Depth=3
	@DEBUG_VALUE: CLK_EnablePLL:u32NF <- [DW_OP_constu 4, DW_OP_minus, DW_OP_stack_value] $r4
	@DEBUG_VALUE: CLK_EnablePLL:u32PllFreq <- [DW_OP_plus_uconst 8] [$sp+0]
	@DEBUG_VALUE: CLK_EnablePLL:u32NO <- [DW_OP_plus_uconst 156] [$sp+0]
	@DEBUG_VALUE: CLK_EnablePLL:u32Min <- $r0
	@DEBUG_VALUE: CLK_EnablePLL:u32PllClkSrc <- [DW_OP_LLVM_entry_value 1] $r0
	@DEBUG_VALUE: CLK_EnablePLL:u32PllSrcClk <- 12000000
	@DEBUG_VALUE: CLK_EnablePLL:u32CLK_SRC <- $r11
	@DEBUG_VALUE: CLK_EnablePLL:u32MinNO <- $r1
	@DEBUG_VALUE: CLK_EnablePLL:u32MinNR <- [DW_OP_plus_uconst 152] [$sp+0]
	@DEBUG_VALUE: CLK_EnablePLL:u32MinNF <- [DW_OP_plus_uconst 148] [$sp+0]
	@DEBUG_VALUE: CLK_EnablePLL:u32Min <- $r0
	@DEBUG_VALUE: CLK_EnablePLL:u32NF <- [DW_OP_constu 3, DW_OP_minus, DW_OP_stack_value] $r4
	@DEBUG_VALUE: CLK_EnablePLL:u32Tmp2 <- undef
	.loc	2 887 56 is_stmt 1              @ Library/StdDriver/src/clk.c:887:56
	ldr	r3, [sp, #124]                  @ 4-byte Reload
	add	r3, lr
	cmp	r3, r5
	bhs	.LBB15_50
.Ltmp297:
@ %bb.47:                               @   in Loop: Header=BB15_30 Depth=3
	@DEBUG_VALUE: CLK_EnablePLL:u32NF <- [DW_OP_constu 3, DW_OP_minus, DW_OP_stack_value] $r4
	@DEBUG_VALUE: CLK_EnablePLL:u32PllFreq <- [DW_OP_plus_uconst 8] [$sp+0]
	@DEBUG_VALUE: CLK_EnablePLL:u32NO <- [DW_OP_plus_uconst 156] [$sp+0]
	@DEBUG_VALUE: CLK_EnablePLL:u32Min <- $r0
	@DEBUG_VALUE: CLK_EnablePLL:u32MinNF <- [DW_OP_plus_uconst 148] [$sp+0]
	@DEBUG_VALUE: CLK_EnablePLL:u32MinNR <- [DW_OP_plus_uconst 152] [$sp+0]
	@DEBUG_VALUE: CLK_EnablePLL:u32MinNO <- $r1
	@DEBUG_VALUE: CLK_EnablePLL:u32PllClkSrc <- [DW_OP_LLVM_entry_value 1] $r0
	@DEBUG_VALUE: CLK_EnablePLL:u32PllSrcClk <- 12000000
	@DEBUG_VALUE: CLK_EnablePLL:u32CLK_SRC <- $r11
	.loc	2 0 0 is_stmt 0                 @ Library/StdDriver/src/clk.c:0:0
	ldr	r3, [sp, #56]                   @ 4-byte Reload
.Ltmp298:
	.loc	2 889 43 is_stmt 1              @ Library/StdDriver/src/clk.c:889:43
	ldr	r6, [sp, #52]                   @ 4-byte Reload
.Ltmp299:
	.loc	2 0 0 is_stmt 0                 @ Library/StdDriver/src/clk.c:0:0
	add.w	r7, r3, lr
.Ltmp300:
	.loc	2 889 43                        @ Library/StdDriver/src/clk.c:889:43
	ldr	r3, [sp, #60]                   @ 4-byte Reload
	cmp	r7, r9
	add	r3, r12
	it	hi
	addhi.w	r3, r6, lr
.Ltmp301:
	@DEBUG_VALUE: CLK_EnablePLL:u32Tmp3 <- $r3
	.loc	2 890 36 is_stmt 1              @ Library/StdDriver/src/clk.c:890:36
	cmp	r3, r0
	bhs	.LBB15_50
.Ltmp302:
@ %bb.48:                               @   in Loop: Header=BB15_30 Depth=3
	@DEBUG_VALUE: CLK_EnablePLL:u32NF <- [DW_OP_constu 3, DW_OP_minus, DW_OP_stack_value] $r4
	@DEBUG_VALUE: CLK_EnablePLL:u32Tmp3 <- $r3
	@DEBUG_VALUE: CLK_EnablePLL:u32PllFreq <- [DW_OP_plus_uconst 8] [$sp+0]
	@DEBUG_VALUE: CLK_EnablePLL:u32NO <- [DW_OP_plus_uconst 156] [$sp+0]
	@DEBUG_VALUE: CLK_EnablePLL:u32Min <- $r0
	@DEBUG_VALUE: CLK_EnablePLL:u32MinNF <- [DW_OP_plus_uconst 148] [$sp+0]
	@DEBUG_VALUE: CLK_EnablePLL:u32MinNR <- [DW_OP_plus_uconst 152] [$sp+0]
	@DEBUG_VALUE: CLK_EnablePLL:u32MinNO <- $r1
	@DEBUG_VALUE: CLK_EnablePLL:u32PllClkSrc <- [DW_OP_LLVM_entry_value 1] $r0
	@DEBUG_VALUE: CLK_EnablePLL:u32PllSrcClk <- 12000000
	@DEBUG_VALUE: CLK_EnablePLL:u32CLK_SRC <- $r11
	.loc	2 898 40                        @ Library/StdDriver/src/clk.c:898:40
	cmp	r3, #0
.Ltmp303:
	.loc	2 0 0 is_stmt 0                 @ Library/StdDriver/src/clk.c:0:0
	sub.w	r1, r4, #3
.Ltmp304:
	@DEBUG_VALUE: CLK_EnablePLL:u32Min <- $r3
	@DEBUG_VALUE: CLK_EnablePLL:u32MinNF <- [DW_OP_constu 3, DW_OP_minus, DW_OP_stack_value] $r4
	@DEBUG_VALUE: CLK_EnablePLL:u32MinNR <- $r2
	@DEBUG_VALUE: CLK_EnablePLL:u32MinNO <- [DW_OP_plus_uconst 156] [$sp+0]
	.loc	2 898 40                        @ Library/StdDriver/src/clk.c:898:40
	str	r1, [sp, #148]                  @ 4-byte Spill
	beq.w	.LBB15_76
.Ltmp305:
@ %bb.49:                               @   in Loop: Header=BB15_30 Depth=3
	@DEBUG_VALUE: CLK_EnablePLL:u32MinNF <- [DW_OP_constu 3, DW_OP_minus, DW_OP_stack_value] $r4
	@DEBUG_VALUE: CLK_EnablePLL:u32NF <- [DW_OP_constu 3, DW_OP_minus, DW_OP_stack_value] $r4
	@DEBUG_VALUE: CLK_EnablePLL:u32MinNO <- [DW_OP_plus_uconst 156] [$sp+0]
	@DEBUG_VALUE: CLK_EnablePLL:u32MinNR <- $r2
	@DEBUG_VALUE: CLK_EnablePLL:u32Min <- $r3
	@DEBUG_VALUE: CLK_EnablePLL:u32Tmp3 <- $r3
	@DEBUG_VALUE: CLK_EnablePLL:u32PllFreq <- [DW_OP_plus_uconst 8] [$sp+0]
	@DEBUG_VALUE: CLK_EnablePLL:u32NO <- [DW_OP_plus_uconst 156] [$sp+0]
	@DEBUG_VALUE: CLK_EnablePLL:u32PllClkSrc <- [DW_OP_LLVM_entry_value 1] $r0
	@DEBUG_VALUE: CLK_EnablePLL:u32PllSrcClk <- 12000000
	@DEBUG_VALUE: CLK_EnablePLL:u32CLK_SRC <- $r11
	@DEBUG_VALUE: CLK_EnablePLL:u32Min <- $r3
	.loc	2 0 40                          @ Library/StdDriver/src/clk.c:0:40
	ldr	r1, [sp, #156]                  @ 4-byte Reload
	mov	r0, r3
.Ltmp306:
	@DEBUG_VALUE: CLK_EnablePLL:u32Min <- $r0
	str	r2, [sp, #152]                  @ 4-byte Spill
.Ltmp307:
.LBB15_50:                              @   in Loop: Header=BB15_30 Depth=3
	@DEBUG_VALUE: CLK_EnablePLL:u32NF <- [DW_OP_constu 3, DW_OP_minus, DW_OP_stack_value] $r4
	@DEBUG_VALUE: CLK_EnablePLL:u32PllFreq <- [DW_OP_plus_uconst 8] [$sp+0]
	@DEBUG_VALUE: CLK_EnablePLL:u32NO <- [DW_OP_plus_uconst 156] [$sp+0]
	@DEBUG_VALUE: CLK_EnablePLL:u32Min <- $r0
	@DEBUG_VALUE: CLK_EnablePLL:u32PllClkSrc <- [DW_OP_LLVM_entry_value 1] $r0
	@DEBUG_VALUE: CLK_EnablePLL:u32PllSrcClk <- 12000000
	@DEBUG_VALUE: CLK_EnablePLL:u32CLK_SRC <- $r11
	@DEBUG_VALUE: CLK_EnablePLL:u32MinNO <- $r1
	@DEBUG_VALUE: CLK_EnablePLL:u32MinNR <- [DW_OP_plus_uconst 152] [$sp+0]
	@DEBUG_VALUE: CLK_EnablePLL:u32MinNF <- [DW_OP_plus_uconst 148] [$sp+0]
	@DEBUG_VALUE: CLK_EnablePLL:u32Min <- $r0
	@DEBUG_VALUE: CLK_EnablePLL:u32NF <- [DW_OP_constu 2, DW_OP_minus, DW_OP_stack_value] $r4
	@DEBUG_VALUE: CLK_EnablePLL:u32Tmp2 <- undef
	.loc	2 887 56 is_stmt 1              @ Library/StdDriver/src/clk.c:887:56
	ldr	r3, [sp, #120]                  @ 4-byte Reload
	add	r3, lr
	cmp	r3, r5
	bhs	.LBB15_54
.Ltmp308:
@ %bb.51:                               @   in Loop: Header=BB15_30 Depth=3
	@DEBUG_VALUE: CLK_EnablePLL:u32NF <- [DW_OP_constu 2, DW_OP_minus, DW_OP_stack_value] $r4
	@DEBUG_VALUE: CLK_EnablePLL:u32PllFreq <- [DW_OP_plus_uconst 8] [$sp+0]
	@DEBUG_VALUE: CLK_EnablePLL:u32NO <- [DW_OP_plus_uconst 156] [$sp+0]
	@DEBUG_VALUE: CLK_EnablePLL:u32Min <- $r0
	@DEBUG_VALUE: CLK_EnablePLL:u32MinNF <- [DW_OP_plus_uconst 148] [$sp+0]
	@DEBUG_VALUE: CLK_EnablePLL:u32MinNR <- [DW_OP_plus_uconst 152] [$sp+0]
	@DEBUG_VALUE: CLK_EnablePLL:u32MinNO <- $r1
	@DEBUG_VALUE: CLK_EnablePLL:u32PllClkSrc <- [DW_OP_LLVM_entry_value 1] $r0
	@DEBUG_VALUE: CLK_EnablePLL:u32PllSrcClk <- 12000000
	@DEBUG_VALUE: CLK_EnablePLL:u32CLK_SRC <- $r11
	.loc	2 0 0 is_stmt 0                 @ Library/StdDriver/src/clk.c:0:0
	ldr	r3, [sp, #44]                   @ 4-byte Reload
.Ltmp309:
	.loc	2 889 43 is_stmt 1              @ Library/StdDriver/src/clk.c:889:43
	ldr	r6, [sp, #40]                   @ 4-byte Reload
.Ltmp310:
	.loc	2 0 0 is_stmt 0                 @ Library/StdDriver/src/clk.c:0:0
	add.w	r7, r3, lr
.Ltmp311:
	.loc	2 889 43                        @ Library/StdDriver/src/clk.c:889:43
	ldr	r3, [sp, #48]                   @ 4-byte Reload
	cmp	r7, r9
	add	r3, r12
	it	hi
	addhi.w	r3, r6, lr
.Ltmp312:
	@DEBUG_VALUE: CLK_EnablePLL:u32Tmp3 <- $r3
	.loc	2 890 36 is_stmt 1              @ Library/StdDriver/src/clk.c:890:36
	cmp	r3, r0
	bhs	.LBB15_54
.Ltmp313:
@ %bb.52:                               @   in Loop: Header=BB15_30 Depth=3
	@DEBUG_VALUE: CLK_EnablePLL:u32NF <- [DW_OP_constu 2, DW_OP_minus, DW_OP_stack_value] $r4
	@DEBUG_VALUE: CLK_EnablePLL:u32Tmp3 <- $r3
	@DEBUG_VALUE: CLK_EnablePLL:u32PllFreq <- [DW_OP_plus_uconst 8] [$sp+0]
	@DEBUG_VALUE: CLK_EnablePLL:u32NO <- [DW_OP_plus_uconst 156] [$sp+0]
	@DEBUG_VALUE: CLK_EnablePLL:u32Min <- $r0
	@DEBUG_VALUE: CLK_EnablePLL:u32MinNF <- [DW_OP_plus_uconst 148] [$sp+0]
	@DEBUG_VALUE: CLK_EnablePLL:u32MinNR <- [DW_OP_plus_uconst 152] [$sp+0]
	@DEBUG_VALUE: CLK_EnablePLL:u32MinNO <- $r1
	@DEBUG_VALUE: CLK_EnablePLL:u32PllClkSrc <- [DW_OP_LLVM_entry_value 1] $r0
	@DEBUG_VALUE: CLK_EnablePLL:u32PllSrcClk <- 12000000
	@DEBUG_VALUE: CLK_EnablePLL:u32CLK_SRC <- $r11
	.loc	2 898 40                        @ Library/StdDriver/src/clk.c:898:40
	cmp	r3, #0
.Ltmp314:
	.loc	2 0 0 is_stmt 0                 @ Library/StdDriver/src/clk.c:0:0
	sub.w	r1, r4, #2
.Ltmp315:
	@DEBUG_VALUE: CLK_EnablePLL:u32Min <- $r3
	@DEBUG_VALUE: CLK_EnablePLL:u32MinNF <- [DW_OP_constu 2, DW_OP_minus, DW_OP_stack_value] $r4
	@DEBUG_VALUE: CLK_EnablePLL:u32MinNR <- $r2
	@DEBUG_VALUE: CLK_EnablePLL:u32MinNO <- [DW_OP_plus_uconst 156] [$sp+0]
	.loc	2 898 40                        @ Library/StdDriver/src/clk.c:898:40
	str	r1, [sp, #148]                  @ 4-byte Spill
	beq	.LBB15_76
.Ltmp316:
@ %bb.53:                               @   in Loop: Header=BB15_30 Depth=3
	@DEBUG_VALUE: CLK_EnablePLL:u32MinNF <- [DW_OP_constu 2, DW_OP_minus, DW_OP_stack_value] $r4
	@DEBUG_VALUE: CLK_EnablePLL:u32NF <- [DW_OP_constu 2, DW_OP_minus, DW_OP_stack_value] $r4
	@DEBUG_VALUE: CLK_EnablePLL:u32MinNO <- [DW_OP_plus_uconst 156] [$sp+0]
	@DEBUG_VALUE: CLK_EnablePLL:u32MinNR <- $r2
	@DEBUG_VALUE: CLK_EnablePLL:u32Min <- $r3
	@DEBUG_VALUE: CLK_EnablePLL:u32Tmp3 <- $r3
	@DEBUG_VALUE: CLK_EnablePLL:u32PllFreq <- [DW_OP_plus_uconst 8] [$sp+0]
	@DEBUG_VALUE: CLK_EnablePLL:u32NO <- [DW_OP_plus_uconst 156] [$sp+0]
	@DEBUG_VALUE: CLK_EnablePLL:u32PllClkSrc <- [DW_OP_LLVM_entry_value 1] $r0
	@DEBUG_VALUE: CLK_EnablePLL:u32PllSrcClk <- 12000000
	@DEBUG_VALUE: CLK_EnablePLL:u32CLK_SRC <- $r11
	@DEBUG_VALUE: CLK_EnablePLL:u32Min <- $r3
	.loc	2 0 40                          @ Library/StdDriver/src/clk.c:0:40
	ldr	r1, [sp, #156]                  @ 4-byte Reload
	mov	r0, r3
.Ltmp317:
	@DEBUG_VALUE: CLK_EnablePLL:u32Min <- $r0
	str	r2, [sp, #152]                  @ 4-byte Spill
.Ltmp318:
.LBB15_54:                              @   in Loop: Header=BB15_30 Depth=3
	@DEBUG_VALUE: CLK_EnablePLL:u32NF <- [DW_OP_constu 2, DW_OP_minus, DW_OP_stack_value] $r4
	@DEBUG_VALUE: CLK_EnablePLL:u32PllFreq <- [DW_OP_plus_uconst 8] [$sp+0]
	@DEBUG_VALUE: CLK_EnablePLL:u32NO <- [DW_OP_plus_uconst 156] [$sp+0]
	@DEBUG_VALUE: CLK_EnablePLL:u32Min <- $r0
	@DEBUG_VALUE: CLK_EnablePLL:u32PllClkSrc <- [DW_OP_LLVM_entry_value 1] $r0
	@DEBUG_VALUE: CLK_EnablePLL:u32PllSrcClk <- 12000000
	@DEBUG_VALUE: CLK_EnablePLL:u32CLK_SRC <- $r11
	@DEBUG_VALUE: CLK_EnablePLL:u32MinNO <- $r1
	@DEBUG_VALUE: CLK_EnablePLL:u32MinNR <- [DW_OP_plus_uconst 152] [$sp+0]
	@DEBUG_VALUE: CLK_EnablePLL:u32MinNF <- [DW_OP_plus_uconst 148] [$sp+0]
	@DEBUG_VALUE: CLK_EnablePLL:u32Min <- $r0
	@DEBUG_VALUE: CLK_EnablePLL:u32NF <- [DW_OP_constu 1, DW_OP_minus, DW_OP_stack_value] $r4
	@DEBUG_VALUE: CLK_EnablePLL:u32Tmp2 <- undef
	.loc	2 887 56 is_stmt 1              @ Library/StdDriver/src/clk.c:887:56
	ldr	r3, [sp, #116]                  @ 4-byte Reload
	mov	r10, r9
	add	r3, lr
	cmp	r3, r5
	ldr	r3, [sp, #144]                  @ 4-byte Reload
	add.w	r8, r3, lr
	bhs	.LBB15_58
.Ltmp319:
@ %bb.55:                               @   in Loop: Header=BB15_30 Depth=3
	@DEBUG_VALUE: CLK_EnablePLL:u32NF <- [DW_OP_constu 1, DW_OP_minus, DW_OP_stack_value] $r4
	@DEBUG_VALUE: CLK_EnablePLL:u32PllFreq <- [DW_OP_plus_uconst 8] [$sp+0]
	@DEBUG_VALUE: CLK_EnablePLL:u32NO <- [DW_OP_plus_uconst 156] [$sp+0]
	@DEBUG_VALUE: CLK_EnablePLL:u32Min <- $r0
	@DEBUG_VALUE: CLK_EnablePLL:u32MinNF <- [DW_OP_plus_uconst 148] [$sp+0]
	@DEBUG_VALUE: CLK_EnablePLL:u32MinNR <- [DW_OP_plus_uconst 152] [$sp+0]
	@DEBUG_VALUE: CLK_EnablePLL:u32MinNO <- $r1
	@DEBUG_VALUE: CLK_EnablePLL:u32PllClkSrc <- [DW_OP_LLVM_entry_value 1] $r0
	@DEBUG_VALUE: CLK_EnablePLL:u32PllSrcClk <- 12000000
	@DEBUG_VALUE: CLK_EnablePLL:u32CLK_SRC <- $r11
	.loc	2 889 43                        @ Library/StdDriver/src/clk.c:889:43
	ldr	r3, [sp, #36]                   @ 4-byte Reload
	cmp	r8, r10
	add.w	r9, r3, r12
	ldr	r3, [sp, #32]                   @ 4-byte Reload
	it	hi
	addhi.w	r9, r3, lr
.Ltmp320:
	@DEBUG_VALUE: CLK_EnablePLL:u32Tmp3 <- $r9
	.loc	2 890 36                        @ Library/StdDriver/src/clk.c:890:36
	cmp	r9, r0
	bhs	.LBB15_58
.Ltmp321:
@ %bb.56:                               @   in Loop: Header=BB15_30 Depth=3
	@DEBUG_VALUE: CLK_EnablePLL:u32Tmp3 <- $r9
	@DEBUG_VALUE: CLK_EnablePLL:u32NF <- [DW_OP_constu 1, DW_OP_minus, DW_OP_stack_value] $r4
	@DEBUG_VALUE: CLK_EnablePLL:u32PllFreq <- [DW_OP_plus_uconst 8] [$sp+0]
	@DEBUG_VALUE: CLK_EnablePLL:u32NO <- [DW_OP_plus_uconst 156] [$sp+0]
	@DEBUG_VALUE: CLK_EnablePLL:u32Min <- $r0
	@DEBUG_VALUE: CLK_EnablePLL:u32MinNF <- [DW_OP_plus_uconst 148] [$sp+0]
	@DEBUG_VALUE: CLK_EnablePLL:u32MinNR <- [DW_OP_plus_uconst 152] [$sp+0]
	@DEBUG_VALUE: CLK_EnablePLL:u32MinNO <- $r1
	@DEBUG_VALUE: CLK_EnablePLL:u32PllClkSrc <- [DW_OP_LLVM_entry_value 1] $r0
	@DEBUG_VALUE: CLK_EnablePLL:u32PllSrcClk <- 12000000
	@DEBUG_VALUE: CLK_EnablePLL:u32CLK_SRC <- $r11
	.loc	2 898 40                        @ Library/StdDriver/src/clk.c:898:40
	cmp.w	r9, #0
.Ltmp322:
	.loc	2 0 0 is_stmt 0                 @ Library/StdDriver/src/clk.c:0:0
	sub.w	r1, r4, #1
.Ltmp323:
	@DEBUG_VALUE: CLK_EnablePLL:u32Min <- $r9
	@DEBUG_VALUE: CLK_EnablePLL:u32MinNF <- [DW_OP_constu 1, DW_OP_minus, DW_OP_stack_value] $r4
	@DEBUG_VALUE: CLK_EnablePLL:u32MinNR <- $r2
	@DEBUG_VALUE: CLK_EnablePLL:u32MinNO <- [DW_OP_plus_uconst 156] [$sp+0]
	.loc	2 898 40                        @ Library/StdDriver/src/clk.c:898:40
	str	r1, [sp, #148]                  @ 4-byte Spill
	beq	.LBB15_76
.Ltmp324:
@ %bb.57:                               @   in Loop: Header=BB15_30 Depth=3
	@DEBUG_VALUE: CLK_EnablePLL:u32MinNF <- [DW_OP_constu 1, DW_OP_minus, DW_OP_stack_value] $r4
	@DEBUG_VALUE: CLK_EnablePLL:u32Min <- $r9
	@DEBUG_VALUE: CLK_EnablePLL:u32Tmp3 <- $r9
	@DEBUG_VALUE: CLK_EnablePLL:u32NF <- [DW_OP_constu 1, DW_OP_minus, DW_OP_stack_value] $r4
	@DEBUG_VALUE: CLK_EnablePLL:u32MinNO <- [DW_OP_plus_uconst 156] [$sp+0]
	@DEBUG_VALUE: CLK_EnablePLL:u32MinNR <- $r2
	@DEBUG_VALUE: CLK_EnablePLL:u32PllFreq <- [DW_OP_plus_uconst 8] [$sp+0]
	@DEBUG_VALUE: CLK_EnablePLL:u32NO <- [DW_OP_plus_uconst 156] [$sp+0]
	@DEBUG_VALUE: CLK_EnablePLL:u32PllClkSrc <- [DW_OP_LLVM_entry_value 1] $r0
	@DEBUG_VALUE: CLK_EnablePLL:u32PllSrcClk <- 12000000
	@DEBUG_VALUE: CLK_EnablePLL:u32CLK_SRC <- $r11
	@DEBUG_VALUE: CLK_EnablePLL:u32Min <- $r9
	.loc	2 0 40                          @ Library/StdDriver/src/clk.c:0:40
	ldr	r1, [sp, #156]                  @ 4-byte Reload
	mov	r0, r9
.Ltmp325:
	@DEBUG_VALUE: CLK_EnablePLL:u32Min <- $r0
	str	r2, [sp, #152]                  @ 4-byte Spill
.Ltmp326:
.LBB15_58:                              @   in Loop: Header=BB15_30 Depth=3
	@DEBUG_VALUE: CLK_EnablePLL:u32NF <- [DW_OP_constu 1, DW_OP_minus, DW_OP_stack_value] $r4
	@DEBUG_VALUE: CLK_EnablePLL:u32PllFreq <- [DW_OP_plus_uconst 8] [$sp+0]
	@DEBUG_VALUE: CLK_EnablePLL:u32NO <- [DW_OP_plus_uconst 156] [$sp+0]
	@DEBUG_VALUE: CLK_EnablePLL:u32Min <- $r0
	@DEBUG_VALUE: CLK_EnablePLL:u32PllClkSrc <- [DW_OP_LLVM_entry_value 1] $r0
	@DEBUG_VALUE: CLK_EnablePLL:u32PllSrcClk <- 12000000
	@DEBUG_VALUE: CLK_EnablePLL:u32CLK_SRC <- $r11
	@DEBUG_VALUE: CLK_EnablePLL:u32MinNO <- $r1
	@DEBUG_VALUE: CLK_EnablePLL:u32MinNR <- [DW_OP_plus_uconst 152] [$sp+0]
	@DEBUG_VALUE: CLK_EnablePLL:u32MinNF <- [DW_OP_plus_uconst 148] [$sp+0]
	@DEBUG_VALUE: CLK_EnablePLL:u32Min <- $r0
	@DEBUG_VALUE: CLK_EnablePLL:u32NF <- $r4
	@DEBUG_VALUE: CLK_EnablePLL:u32Tmp2 <- undef
	mov	r3, r2
	.loc	2 887 56 is_stmt 1              @ Library/StdDriver/src/clk.c:887:56
	ldr	r2, [sp, #112]                  @ 4-byte Reload
	add.w	r7, r2, lr
	cmp	r7, r5
	bhs.w	.LBB15_28
.Ltmp327:
@ %bb.59:                               @   in Loop: Header=BB15_30 Depth=3
	@DEBUG_VALUE: CLK_EnablePLL:u32NF <- $r4
	@DEBUG_VALUE: CLK_EnablePLL:u32PllFreq <- [DW_OP_plus_uconst 8] [$sp+0]
	@DEBUG_VALUE: CLK_EnablePLL:u32NO <- [DW_OP_plus_uconst 156] [$sp+0]
	@DEBUG_VALUE: CLK_EnablePLL:u32Min <- $r0
	@DEBUG_VALUE: CLK_EnablePLL:u32MinNF <- [DW_OP_plus_uconst 148] [$sp+0]
	@DEBUG_VALUE: CLK_EnablePLL:u32MinNR <- [DW_OP_plus_uconst 152] [$sp+0]
	@DEBUG_VALUE: CLK_EnablePLL:u32MinNO <- $r1
	@DEBUG_VALUE: CLK_EnablePLL:u32PllClkSrc <- [DW_OP_LLVM_entry_value 1] $r0
	@DEBUG_VALUE: CLK_EnablePLL:u32PllSrcClk <- 12000000
	@DEBUG_VALUE: CLK_EnablePLL:u32CLK_SRC <- $r11
	.loc	2 0 56 is_stmt 0                @ Library/StdDriver/src/clk.c:0:56
	mov	r6, r1
.Ltmp328:
	@DEBUG_VALUE: CLK_EnablePLL:u32MinNO <- $r6
	ldr	r1, [sp, #28]                   @ 4-byte Reload
	mov	r2, r5
.Ltmp329:
	.loc	2 889 43 is_stmt 1              @ Library/StdDriver/src/clk.c:889:43
	ldr	r5, [sp, #24]                   @ 4-byte Reload
.Ltmp330:
	.loc	2 0 0 is_stmt 0                 @ Library/StdDriver/src/clk.c:0:0
	add	r1, lr
.Ltmp331:
	.loc	2 889 43                        @ Library/StdDriver/src/clk.c:889:43
	add.w	r7, r5, r12
	cmp	r1, r10
	mov	r9, r10
	mov	r1, r6
	mov	r5, r2
	ldr	r2, [sp, #20]                   @ 4-byte Reload
	it	hi
	addhi.w	r7, r2, lr
.Ltmp332:
	@DEBUG_VALUE: CLK_EnablePLL:u32Tmp3 <- $r7
	.loc	2 890 36 is_stmt 1              @ Library/StdDriver/src/clk.c:890:36
	cmp	r7, r0
	bhs.w	.LBB15_29
.Ltmp333:
@ %bb.60:                               @   in Loop: Header=BB15_30 Depth=3
	@DEBUG_VALUE: CLK_EnablePLL:u32Tmp3 <- $r7
	@DEBUG_VALUE: CLK_EnablePLL:u32MinNO <- $r6
	@DEBUG_VALUE: CLK_EnablePLL:u32NF <- $r4
	@DEBUG_VALUE: CLK_EnablePLL:u32PllFreq <- [DW_OP_plus_uconst 8] [$sp+0]
	@DEBUG_VALUE: CLK_EnablePLL:u32NO <- [DW_OP_plus_uconst 156] [$sp+0]
	@DEBUG_VALUE: CLK_EnablePLL:u32Min <- $r0
	@DEBUG_VALUE: CLK_EnablePLL:u32MinNF <- [DW_OP_plus_uconst 148] [$sp+0]
	@DEBUG_VALUE: CLK_EnablePLL:u32MinNR <- [DW_OP_plus_uconst 152] [$sp+0]
	@DEBUG_VALUE: CLK_EnablePLL:u32PllClkSrc <- [DW_OP_LLVM_entry_value 1] $r0
	@DEBUG_VALUE: CLK_EnablePLL:u32PllSrcClk <- 12000000
	@DEBUG_VALUE: CLK_EnablePLL:u32CLK_SRC <- $r11
	@DEBUG_VALUE: CLK_EnablePLL:u32MinNO <- [DW_OP_plus_uconst 156] [$sp+0]
	@DEBUG_VALUE: CLK_EnablePLL:u32MinNR <- $r3
	@DEBUG_VALUE: CLK_EnablePLL:u32MinNF <- $r4
	@DEBUG_VALUE: CLK_EnablePLL:u32Min <- $r7
	.loc	2 0 36 is_stmt 0                @ Library/StdDriver/src/clk.c:0:36
	mov	r1, r3
	ldr	r1, [sp, #156]                  @ 4-byte Reload
.Ltmp334:
	.loc	2 898 40 is_stmt 1              @ Library/StdDriver/src/clk.c:898:40
	cmp	r7, #0
	mov	r0, r7
.Ltmp335:
	@DEBUG_VALUE: CLK_EnablePLL:u32Min <- $r0
	.loc	2 0 40 is_stmt 0                @ Library/StdDriver/src/clk.c:0:40
	str	r4, [sp, #148]                  @ 4-byte Spill
	str	r3, [sp, #152]                  @ 4-byte Spill
	bne.w	.LBB15_29
	b	.LBB15_98
.Ltmp336:
	.p2align	2
.LBB15_61:                              @   in Loop: Header=BB15_26 Depth=2
	@DEBUG_VALUE: CLK_EnablePLL:u32MinNO <- [DW_OP_plus_uconst 16] [$sp+0]
	@DEBUG_VALUE: CLK_EnablePLL:u32NR <- $r2
	@DEBUG_VALUE: CLK_EnablePLL:u32PllFreq <- [DW_OP_plus_uconst 8] [$sp+0]
	@DEBUG_VALUE: CLK_EnablePLL:u32NO <- [DW_OP_plus_uconst 156] [$sp+0]
	@DEBUG_VALUE: CLK_EnablePLL:u32Min <- $r0
	@DEBUG_VALUE: CLK_EnablePLL:u32MinNF <- [DW_OP_plus_uconst 148] [$sp+0]
	@DEBUG_VALUE: CLK_EnablePLL:u32MinNR <- [DW_OP_plus_uconst 152] [$sp+0]
	@DEBUG_VALUE: CLK_EnablePLL:u32PllClkSrc <- [DW_OP_LLVM_entry_value 1] $r0
	@DEBUG_VALUE: CLK_EnablePLL:u32PllSrcClk <- 12000000
	@DEBUG_VALUE: CLK_EnablePLL:u32CLK_SRC <- $r11
	ldr	r1, [sp, #16]                   @ 4-byte Reload
.Ltmp337:
.LBB15_62:                              @   in Loop: Header=BB15_26 Depth=2
	@DEBUG_VALUE: CLK_EnablePLL:u32PllFreq <- [DW_OP_plus_uconst 8] [$sp+0]
	@DEBUG_VALUE: CLK_EnablePLL:u32NO <- [DW_OP_plus_uconst 156] [$sp+0]
	@DEBUG_VALUE: CLK_EnablePLL:u32Min <- $r0
	@DEBUG_VALUE: CLK_EnablePLL:u32MinNF <- [DW_OP_plus_uconst 148] [$sp+0]
	@DEBUG_VALUE: CLK_EnablePLL:u32MinNR <- [DW_OP_plus_uconst 152] [$sp+0]
	@DEBUG_VALUE: CLK_EnablePLL:u32PllClkSrc <- [DW_OP_LLVM_entry_value 1] $r0
	@DEBUG_VALUE: CLK_EnablePLL:u32PllSrcClk <- 12000000
	@DEBUG_VALUE: CLK_EnablePLL:u32CLK_SRC <- $r11
	@DEBUG_VALUE: CLK_EnablePLL:u32MinNO <- $r1
	@DEBUG_VALUE: CLK_EnablePLL:u32MinNR <- [DW_OP_plus_uconst 152] [$sp+0]
	@DEBUG_VALUE: CLK_EnablePLL:u32MinNF <- [DW_OP_plus_uconst 148] [$sp+0]
	@DEBUG_VALUE: CLK_EnablePLL:u32Min <- $r0
	@DEBUG_VALUE: CLK_EnablePLL:u32NR <- undef
	.loc	2 871 17 is_stmt 1              @ Library/StdDriver/src/clk.c:871:17
	cmp	r2, #31
	bhi	.LBB15_64
.Ltmp338:
@ %bb.63:                               @   in Loop: Header=BB15_26 Depth=2
	@DEBUG_VALUE: CLK_EnablePLL:u32PllFreq <- [DW_OP_plus_uconst 8] [$sp+0]
	@DEBUG_VALUE: CLK_EnablePLL:u32NO <- [DW_OP_plus_uconst 156] [$sp+0]
	@DEBUG_VALUE: CLK_EnablePLL:u32Min <- $r0
	@DEBUG_VALUE: CLK_EnablePLL:u32MinNF <- [DW_OP_plus_uconst 148] [$sp+0]
	@DEBUG_VALUE: CLK_EnablePLL:u32MinNR <- [DW_OP_plus_uconst 152] [$sp+0]
	@DEBUG_VALUE: CLK_EnablePLL:u32MinNO <- $r1
	@DEBUG_VALUE: CLK_EnablePLL:u32PllClkSrc <- [DW_OP_LLVM_entry_value 1] $r0
	@DEBUG_VALUE: CLK_EnablePLL:u32PllSrcClk <- 12000000
	@DEBUG_VALUE: CLK_EnablePLL:u32CLK_SRC <- $r11
	cmp	r0, #0
	.loc	2 871 0 is_stmt 0               @ Library/StdDriver/src/clk.c:871:0
	add.w	r2, r2, #1
.Ltmp339:
	@DEBUG_VALUE: CLK_EnablePLL:u32NR <- $r2
	.loc	2 0 0                           @ Library/StdDriver/src/clk.c:0:0
	bne.w	.LBB15_26
.Ltmp340:
.LBB15_64:                              @   in Loop: Header=BB15_21 Depth=1
	@DEBUG_VALUE: CLK_EnablePLL:u32PllFreq <- [DW_OP_plus_uconst 8] [$sp+0]
	@DEBUG_VALUE: CLK_EnablePLL:u32NO <- [DW_OP_plus_uconst 156] [$sp+0]
	@DEBUG_VALUE: CLK_EnablePLL:u32Min <- $r0
	@DEBUG_VALUE: CLK_EnablePLL:u32MinNF <- [DW_OP_plus_uconst 148] [$sp+0]
	@DEBUG_VALUE: CLK_EnablePLL:u32MinNR <- [DW_OP_plus_uconst 152] [$sp+0]
	@DEBUG_VALUE: CLK_EnablePLL:u32MinNO <- $r1
	@DEBUG_VALUE: CLK_EnablePLL:u32PllClkSrc <- [DW_OP_LLVM_entry_value 1] $r0
	@DEBUG_VALUE: CLK_EnablePLL:u32PllSrcClk <- 12000000
	@DEBUG_VALUE: CLK_EnablePLL:u32CLK_SRC <- $r11
	ldr	r4, [sp, #8]                    @ 4-byte Reload
	ldrd	r3, r2, [sp]                    @ 8-byte Folded Reload
	mov.w	r12, #0
.Ltmp341:
	.p2align	2
.LBB15_65:                              @   in Loop: Header=BB15_21 Depth=1
	@DEBUG_VALUE: CLK_EnablePLL:u32NO <- [DW_OP_plus_uconst 156] [$sp+0]
	@DEBUG_VALUE: CLK_EnablePLL:u32Min <- $r0
	@DEBUG_VALUE: CLK_EnablePLL:u32MinNF <- [DW_OP_plus_uconst 148] [$sp+0]
	@DEBUG_VALUE: CLK_EnablePLL:u32MinNR <- [DW_OP_plus_uconst 152] [$sp+0]
	@DEBUG_VALUE: CLK_EnablePLL:u32MinNO <- $r1
	@DEBUG_VALUE: CLK_EnablePLL:u32PllClkSrc <- [DW_OP_LLVM_entry_value 1] $r0
	@DEBUG_VALUE: CLK_EnablePLL:u32PllSrcClk <- 12000000
	@DEBUG_VALUE: CLK_EnablePLL:u32CLK_SRC <- $r11
	@DEBUG_VALUE: CLK_EnablePLL:u32PllFreq <- $r4
	@DEBUG_VALUE: CLK_EnablePLL:u32MinNO <- $r1
	@DEBUG_VALUE: CLK_EnablePLL:u32MinNR <- [DW_OP_plus_uconst 152] [$sp+0]
	@DEBUG_VALUE: CLK_EnablePLL:u32MinNF <- [DW_OP_plus_uconst 148] [$sp+0]
	@DEBUG_VALUE: CLK_EnablePLL:u32Min <- $r0
	@DEBUG_VALUE: CLK_EnablePLL:u32NO <- undef
	.loc	2 848 9 is_stmt 1               @ Library/StdDriver/src/clk.c:848:9
	ldr	r7, [sp, #156]                  @ 4-byte Reload
	cmp	r7, #3
	bhi	.LBB15_77
.Ltmp342:
@ %bb.66:                               @   in Loop: Header=BB15_21 Depth=1
	@DEBUG_VALUE: CLK_EnablePLL:u32Min <- $r0
	@DEBUG_VALUE: CLK_EnablePLL:u32MinNF <- [DW_OP_plus_uconst 148] [$sp+0]
	@DEBUG_VALUE: CLK_EnablePLL:u32MinNR <- [DW_OP_plus_uconst 152] [$sp+0]
	@DEBUG_VALUE: CLK_EnablePLL:u32MinNO <- $r1
	@DEBUG_VALUE: CLK_EnablePLL:u32PllClkSrc <- [DW_OP_LLVM_entry_value 1] $r0
	@DEBUG_VALUE: CLK_EnablePLL:u32PllSrcClk <- 12000000
	@DEBUG_VALUE: CLK_EnablePLL:u32CLK_SRC <- $r11
	@DEBUG_VALUE: CLK_EnablePLL:u32PllFreq <- $r4
	.loc	2 848 0 is_stmt 0               @ Library/StdDriver/src/clk.c:848:0
	ldr	r7, [sp, #156]                  @ 4-byte Reload
	.loc	2 848 9                         @ Library/StdDriver/src/clk.c:848:9
	cmp	r0, #0
	.loc	2 848 0                         @ Library/StdDriver/src/clk.c:848:0
	add.w	r7, r7, #1
.Ltmp343:
	@DEBUG_VALUE: CLK_EnablePLL:u32NO <- $r7
	.loc	2 848 9                         @ Library/StdDriver/src/clk.c:848:9
	str	r7, [sp, #156]                  @ 4-byte Spill
.Ltmp344:
	@DEBUG_VALUE: CLK_EnablePLL:u32NO <- [DW_OP_plus_uconst 156] [$sp+0]
	@DEBUG_VALUE: CLK_EnablePLL:u32NO <- [DW_OP_plus_uconst 156] [$sp+0]
	bne.w	.LBB15_21
	b	.LBB15_77
.Ltmp345:
.LBB15_67:
	@DEBUG_VALUE: CLK_EnablePLL:u32PllSrcClk <- 12000000
	@DEBUG_VALUE: CLK_EnablePLL:u32CLK_SRC <- $r11
	@DEBUG_VALUE: CLK_EnablePLL:u32PllFreq <- $r4
	@DEBUG_VALUE: CLK_EnablePLL:u32PllClkSrc <- $r0
	.loc	2 0 9                           @ Library/StdDriver/src/clk.c:0:9
	movw	r1, #16926
	movt	r1, #8
	cmp	r0, #0
	it	eq
	movweq	r1, #16926
.Ltmp346:
	str	r1, [r6, #-16]
.Ltmp347:
	@DEBUG_VALUE: CLK_WaitClockReady:u32ClkMask <- 4
	.loc	2 970 30 is_stmt 1              @ Library/StdDriver/src/clk.c:970:30
	ldr	r0, [r5]
.Ltmp348:
	@DEBUG_VALUE: CLK_EnablePLL:u32PllClkSrc <- [DW_OP_LLVM_entry_value 1] $r0
	.loc	2 0 30 is_stmt 0                @ Library/StdDriver/src/clk.c:0:30
	movs	r1, #0
	.loc	2 970 46                        @ Library/StdDriver/src/clk.c:970:46
	lsrs	r0, r0, #1
.Ltmp349:
	@DEBUG_VALUE: CLK_WaitClockReady:u32Ret <- 1
	@DEBUG_VALUE: CLK_WaitClockReady:u32TimeOutCnt <- $r0
	.loc	2 973 22 is_stmt 1              @ Library/StdDriver/src/clk.c:973:22
	str	r1, [r7]
.Ltmp350:
.LBB15_68:                              @ =>This Inner Loop Header: Depth=1
	@DEBUG_VALUE: CLK_WaitClockReady:u32TimeOutCnt <- $r0
	@DEBUG_VALUE: CLK_WaitClockReady:u32Ret <- 1
	@DEBUG_VALUE: CLK_EnablePLL:u32PllClkSrc <- [DW_OP_LLVM_entry_value 1] $r0
	@DEBUG_VALUE: CLK_WaitClockReady:u32ClkMask <- 4
	@DEBUG_VALUE: CLK_EnablePLL:u32PllSrcClk <- 12000000
	@DEBUG_VALUE: CLK_EnablePLL:u32CLK_SRC <- $r11
	@DEBUG_VALUE: CLK_EnablePLL:u32PllFreq <- $r4
	@DEBUG_VALUE: CLK_WaitClockReady:u32TimeOutCnt <- $r0
	.loc	2 974 17                        @ Library/StdDriver/src/clk.c:974:17
	ldr	r1, [r6]
	.loc	2 974 5 is_stmt 0               @ Library/StdDriver/src/clk.c:974:5
	lsls	r1, r1, #29
	bmi	.LBB15_87
.Ltmp351:
@ %bb.69:                               @   in Loop: Header=BB15_68 Depth=1
	@DEBUG_VALUE: CLK_WaitClockReady:u32TimeOutCnt <- $r0
	@DEBUG_VALUE: CLK_WaitClockReady:u32Ret <- 1
	@DEBUG_VALUE: CLK_EnablePLL:u32PllClkSrc <- [DW_OP_LLVM_entry_value 1] $r0
	@DEBUG_VALUE: CLK_WaitClockReady:u32ClkMask <- 4
	@DEBUG_VALUE: CLK_EnablePLL:u32PllSrcClk <- 12000000
	@DEBUG_VALUE: CLK_EnablePLL:u32CLK_SRC <- $r11
	@DEBUG_VALUE: CLK_EnablePLL:u32PllFreq <- $r4
	@DEBUG_VALUE: CLK_WaitClockReady:u32TimeOutCnt <- [DW_OP_constu 1, DW_OP_minus, DW_OP_stack_value] $r0
	.loc	2 976 12 is_stmt 1              @ Library/StdDriver/src/clk.c:976:12
	cmp	r0, #1
	beq	.LBB15_88
.Ltmp352:
@ %bb.70:                               @   in Loop: Header=BB15_68 Depth=1
	@DEBUG_VALUE: CLK_WaitClockReady:u32TimeOutCnt <- [DW_OP_constu 1, DW_OP_minus, DW_OP_stack_value] $r0
	@DEBUG_VALUE: CLK_WaitClockReady:u32Ret <- 1
	@DEBUG_VALUE: CLK_EnablePLL:u32PllClkSrc <- [DW_OP_LLVM_entry_value 1] $r0
	@DEBUG_VALUE: CLK_WaitClockReady:u32ClkMask <- 4
	@DEBUG_VALUE: CLK_EnablePLL:u32PllSrcClk <- 12000000
	@DEBUG_VALUE: CLK_EnablePLL:u32CLK_SRC <- $r11
	@DEBUG_VALUE: CLK_EnablePLL:u32PllFreq <- $r4
	@DEBUG_VALUE: CLK_WaitClockReady:u32TimeOutCnt <- [DW_OP_constu 1, DW_OP_minus, DW_OP_stack_value] $r0
	.loc	2 974 17                        @ Library/StdDriver/src/clk.c:974:17
	ldr	r1, [r6]
	.loc	2 974 5 is_stmt 0               @ Library/StdDriver/src/clk.c:974:5
	lsls	r1, r1, #29
	bmi	.LBB15_86
.Ltmp353:
@ %bb.71:                               @   in Loop: Header=BB15_68 Depth=1
	@DEBUG_VALUE: CLK_WaitClockReady:u32TimeOutCnt <- [DW_OP_constu 1, DW_OP_minus, DW_OP_stack_value] $r0
	@DEBUG_VALUE: CLK_WaitClockReady:u32Ret <- 1
	@DEBUG_VALUE: CLK_EnablePLL:u32PllClkSrc <- [DW_OP_LLVM_entry_value 1] $r0
	@DEBUG_VALUE: CLK_WaitClockReady:u32ClkMask <- 4
	@DEBUG_VALUE: CLK_EnablePLL:u32PllSrcClk <- 12000000
	@DEBUG_VALUE: CLK_EnablePLL:u32CLK_SRC <- $r11
	@DEBUG_VALUE: CLK_EnablePLL:u32PllFreq <- $r4
	@DEBUG_VALUE: CLK_WaitClockReady:u32TimeOutCnt <- [DW_OP_constu 2, DW_OP_minus, DW_OP_stack_value] $r0
	.loc	2 976 12 is_stmt 1              @ Library/StdDriver/src/clk.c:976:12
	cmp	r0, #2
	beq	.LBB15_88
.Ltmp354:
@ %bb.72:                               @   in Loop: Header=BB15_68 Depth=1
	@DEBUG_VALUE: CLK_WaitClockReady:u32TimeOutCnt <- [DW_OP_constu 2, DW_OP_minus, DW_OP_stack_value] $r0
	@DEBUG_VALUE: CLK_WaitClockReady:u32Ret <- 1
	@DEBUG_VALUE: CLK_EnablePLL:u32PllClkSrc <- [DW_OP_LLVM_entry_value 1] $r0
	@DEBUG_VALUE: CLK_WaitClockReady:u32ClkMask <- 4
	@DEBUG_VALUE: CLK_EnablePLL:u32PllSrcClk <- 12000000
	@DEBUG_VALUE: CLK_EnablePLL:u32CLK_SRC <- $r11
	@DEBUG_VALUE: CLK_EnablePLL:u32PllFreq <- $r4
	@DEBUG_VALUE: CLK_WaitClockReady:u32TimeOutCnt <- [DW_OP_constu 2, DW_OP_minus, DW_OP_stack_value] $r0
	.loc	2 974 17                        @ Library/StdDriver/src/clk.c:974:17
	ldr	r1, [r6]
	.loc	2 974 5 is_stmt 0               @ Library/StdDriver/src/clk.c:974:5
	lsls	r1, r1, #29
	bmi	.LBB15_86
.Ltmp355:
@ %bb.73:                               @   in Loop: Header=BB15_68 Depth=1
	@DEBUG_VALUE: CLK_WaitClockReady:u32TimeOutCnt <- [DW_OP_constu 2, DW_OP_minus, DW_OP_stack_value] $r0
	@DEBUG_VALUE: CLK_WaitClockReady:u32Ret <- 1
	@DEBUG_VALUE: CLK_EnablePLL:u32PllClkSrc <- [DW_OP_LLVM_entry_value 1] $r0
	@DEBUG_VALUE: CLK_WaitClockReady:u32ClkMask <- 4
	@DEBUG_VALUE: CLK_EnablePLL:u32PllSrcClk <- 12000000
	@DEBUG_VALUE: CLK_EnablePLL:u32CLK_SRC <- $r11
	@DEBUG_VALUE: CLK_EnablePLL:u32PllFreq <- $r4
	@DEBUG_VALUE: CLK_WaitClockReady:u32TimeOutCnt <- [DW_OP_constu 3, DW_OP_minus, DW_OP_stack_value] $r0
	.loc	2 976 12 is_stmt 1              @ Library/StdDriver/src/clk.c:976:12
	cmp	r0, #3
	beq	.LBB15_88
.Ltmp356:
@ %bb.74:                               @   in Loop: Header=BB15_68 Depth=1
	@DEBUG_VALUE: CLK_WaitClockReady:u32TimeOutCnt <- [DW_OP_constu 3, DW_OP_minus, DW_OP_stack_value] $r0
	@DEBUG_VALUE: CLK_WaitClockReady:u32Ret <- 1
	@DEBUG_VALUE: CLK_EnablePLL:u32PllClkSrc <- [DW_OP_LLVM_entry_value 1] $r0
	@DEBUG_VALUE: CLK_WaitClockReady:u32ClkMask <- 4
	@DEBUG_VALUE: CLK_EnablePLL:u32PllSrcClk <- 12000000
	@DEBUG_VALUE: CLK_EnablePLL:u32CLK_SRC <- $r11
	@DEBUG_VALUE: CLK_EnablePLL:u32PllFreq <- $r4
	@DEBUG_VALUE: CLK_WaitClockReady:u32TimeOutCnt <- [DW_OP_constu 3, DW_OP_minus, DW_OP_stack_value] $r0
	.loc	2 974 17                        @ Library/StdDriver/src/clk.c:974:17
	ldr	r1, [r6]
	.loc	2 974 5 is_stmt 0               @ Library/StdDriver/src/clk.c:974:5
	lsls	r1, r1, #29
	bmi	.LBB15_86
.Ltmp357:
@ %bb.75:                               @   in Loop: Header=BB15_68 Depth=1
	@DEBUG_VALUE: CLK_WaitClockReady:u32TimeOutCnt <- [DW_OP_constu 3, DW_OP_minus, DW_OP_stack_value] $r0
	@DEBUG_VALUE: CLK_WaitClockReady:u32Ret <- 1
	@DEBUG_VALUE: CLK_EnablePLL:u32PllClkSrc <- [DW_OP_LLVM_entry_value 1] $r0
	@DEBUG_VALUE: CLK_WaitClockReady:u32ClkMask <- 4
	@DEBUG_VALUE: CLK_EnablePLL:u32PllSrcClk <- 12000000
	@DEBUG_VALUE: CLK_EnablePLL:u32CLK_SRC <- $r11
	@DEBUG_VALUE: CLK_EnablePLL:u32PllFreq <- $r4
	.loc	2 976 12 is_stmt 1              @ Library/StdDriver/src/clk.c:976:12
	subs	r0, #4
.Ltmp358:
	@DEBUG_VALUE: CLK_WaitClockReady:u32TimeOutCnt <- $r0
	.loc	2 976 12 is_stmt 0              @ Library/StdDriver/src/clk.c:976:12
	bne	.LBB15_68
	b	.LBB15_88
.Ltmp359:
.LBB15_76:
	@DEBUG_VALUE: CLK_EnablePLL:u32MinNO <- [DW_OP_plus_uconst 156] [$sp+0]
	@DEBUG_VALUE: CLK_EnablePLL:u32MinNR <- $r2
	@DEBUG_VALUE: CLK_EnablePLL:u32PllFreq <- [DW_OP_plus_uconst 8] [$sp+0]
	@DEBUG_VALUE: CLK_EnablePLL:u32NO <- [DW_OP_plus_uconst 156] [$sp+0]
	@DEBUG_VALUE: CLK_EnablePLL:u32PllClkSrc <- [DW_OP_LLVM_entry_value 1] $r0
	@DEBUG_VALUE: CLK_EnablePLL:u32PllSrcClk <- 12000000
	@DEBUG_VALUE: CLK_EnablePLL:u32CLK_SRC <- $r11
	.loc	2 0 12                          @ Library/StdDriver/src/clk.c:0:12
	ldr	r1, [sp, #156]                  @ 4-byte Reload
	str	r2, [sp, #152]                  @ 4-byte Spill
.Ltmp360:
	@DEBUG_VALUE: CLK_EnablePLL:u32MinNR <- [DW_OP_plus_uconst 152] [$sp+0]
	@DEBUG_VALUE: CLK_EnablePLL:u32NR <- [DW_OP_plus_uconst 152] [$sp+0]
.LBB15_77:
	@DEBUG_VALUE: CLK_EnablePLL:u32PllClkSrc <- [DW_OP_LLVM_entry_value 1] $r0
	@DEBUG_VALUE: CLK_EnablePLL:u32PllSrcClk <- 12000000
	@DEBUG_VALUE: CLK_EnablePLL:u32CLK_SRC <- $r11
	movw	r0, #49152
	movt	r0, #65535
	ldr	r5, [sp, #148]                  @ 4-byte Reload
	mov	r7, r1
.Ltmp361:
	.loc	2 911 54 is_stmt 1              @ Library/StdDriver/src/clk.c:911:54
	add.w	r0, r0, r1, lsl #14
	movw	r1, #65024
	.loc	2 911 81 is_stmt 0              @ Library/StdDriver/src/clk.c:911:81
	ldr	r2, [sp, #152]                  @ 4-byte Reload
	movt	r1, #65535
	.loc	2 911 99                        @ Library/StdDriver/src/clk.c:911:99
	subs	r3, r5, #2
	.loc	2 911 81                        @ Library/StdDriver/src/clk.c:911:81
	add.w	r1, r1, r2, lsl #9
	.loc	2 911 34                        @ Library/StdDriver/src/clk.c:911:34
	orr.w	r2, r3, r11
	.loc	2 911 61                        @ Library/StdDriver/src/clk.c:911:61
	orrs	r1, r2
	movw	r3, #592
	.loc	2 911 87                        @ Library/StdDriver/src/clk.c:911:87
	orrs	r0, r1
	movt	r3, #16384
	.loc	2 911 21                        @ Library/StdDriver/src/clk.c:911:21
	str	r0, [r3, #-16]
.Ltmp362:
	.loc	2 970 30 is_stmt 1              @ Library/StdDriver/src/clk.c:970:30
	movw	r0, :lower16:SystemCoreClock
	movt	r0, :upper16:SystemCoreClock
.Ltmp363:
	@DEBUG_VALUE: CLK_WaitClockReady:u32ClkMask <- 4
	ldr	r0, [r0]
	movw	r2, :lower16:g_CLK_i32ErrCode
	.loc	2 970 46 is_stmt 0              @ Library/StdDriver/src/clk.c:970:46
	lsrs	r0, r0, #1
.Ltmp364:
	@DEBUG_VALUE: CLK_WaitClockReady:u32Ret <- 1
	@DEBUG_VALUE: CLK_WaitClockReady:u32TimeOutCnt <- $r0
	.loc	2 0 46                          @ Library/StdDriver/src/clk.c:0:46
	movs	r1, #0
	movt	r2, :upper16:g_CLK_i32ErrCode
	.loc	2 973 22 is_stmt 1              @ Library/StdDriver/src/clk.c:973:22
	str	r1, [r2]
.Ltmp365:
.LBB15_78:                              @ =>This Inner Loop Header: Depth=1
	@DEBUG_VALUE: CLK_WaitClockReady:u32TimeOutCnt <- $r0
	@DEBUG_VALUE: CLK_WaitClockReady:u32Ret <- 1
	@DEBUG_VALUE: CLK_WaitClockReady:u32ClkMask <- 4
	@DEBUG_VALUE: CLK_EnablePLL:u32PllClkSrc <- [DW_OP_LLVM_entry_value 1] $r0
	@DEBUG_VALUE: CLK_EnablePLL:u32PllSrcClk <- 12000000
	@DEBUG_VALUE: CLK_EnablePLL:u32CLK_SRC <- $r11
	@DEBUG_VALUE: CLK_WaitClockReady:u32TimeOutCnt <- $r0
	.loc	2 974 17                        @ Library/StdDriver/src/clk.c:974:17
	ldr	r1, [r3]
	.loc	2 974 5 is_stmt 0               @ Library/StdDriver/src/clk.c:974:5
	lsls	r1, r1, #29
	bmi	.LBB15_94
.Ltmp366:
@ %bb.79:                               @   in Loop: Header=BB15_78 Depth=1
	@DEBUG_VALUE: CLK_WaitClockReady:u32TimeOutCnt <- $r0
	@DEBUG_VALUE: CLK_WaitClockReady:u32Ret <- 1
	@DEBUG_VALUE: CLK_WaitClockReady:u32ClkMask <- 4
	@DEBUG_VALUE: CLK_EnablePLL:u32PllClkSrc <- [DW_OP_LLVM_entry_value 1] $r0
	@DEBUG_VALUE: CLK_EnablePLL:u32PllSrcClk <- 12000000
	@DEBUG_VALUE: CLK_EnablePLL:u32CLK_SRC <- $r11
	@DEBUG_VALUE: CLK_WaitClockReady:u32TimeOutCnt <- [DW_OP_constu 1, DW_OP_minus, DW_OP_stack_value] $r0
	.loc	2 976 12 is_stmt 1              @ Library/StdDriver/src/clk.c:976:12
	cmp	r0, #1
	beq	.LBB15_95
.Ltmp367:
@ %bb.80:                               @   in Loop: Header=BB15_78 Depth=1
	@DEBUG_VALUE: CLK_WaitClockReady:u32TimeOutCnt <- [DW_OP_constu 1, DW_OP_minus, DW_OP_stack_value] $r0
	@DEBUG_VALUE: CLK_WaitClockReady:u32Ret <- 1
	@DEBUG_VALUE: CLK_WaitClockReady:u32ClkMask <- 4
	@DEBUG_VALUE: CLK_EnablePLL:u32PllClkSrc <- [DW_OP_LLVM_entry_value 1] $r0
	@DEBUG_VALUE: CLK_EnablePLL:u32PllSrcClk <- 12000000
	@DEBUG_VALUE: CLK_EnablePLL:u32CLK_SRC <- $r11
	@DEBUG_VALUE: CLK_WaitClockReady:u32TimeOutCnt <- [DW_OP_constu 1, DW_OP_minus, DW_OP_stack_value] $r0
	.loc	2 974 17                        @ Library/StdDriver/src/clk.c:974:17
	ldr	r1, [r3]
	.loc	2 974 5 is_stmt 0               @ Library/StdDriver/src/clk.c:974:5
	lsls	r1, r1, #29
	bmi	.LBB15_93
.Ltmp368:
@ %bb.81:                               @   in Loop: Header=BB15_78 Depth=1
	@DEBUG_VALUE: CLK_WaitClockReady:u32TimeOutCnt <- [DW_OP_constu 1, DW_OP_minus, DW_OP_stack_value] $r0
	@DEBUG_VALUE: CLK_WaitClockReady:u32Ret <- 1
	@DEBUG_VALUE: CLK_WaitClockReady:u32ClkMask <- 4
	@DEBUG_VALUE: CLK_EnablePLL:u32PllClkSrc <- [DW_OP_LLVM_entry_value 1] $r0
	@DEBUG_VALUE: CLK_EnablePLL:u32PllSrcClk <- 12000000
	@DEBUG_VALUE: CLK_EnablePLL:u32CLK_SRC <- $r11
	@DEBUG_VALUE: CLK_WaitClockReady:u32TimeOutCnt <- [DW_OP_constu 2, DW_OP_minus, DW_OP_stack_value] $r0
	.loc	2 976 12 is_stmt 1              @ Library/StdDriver/src/clk.c:976:12
	cmp	r0, #2
	beq	.LBB15_95
.Ltmp369:
@ %bb.82:                               @   in Loop: Header=BB15_78 Depth=1
	@DEBUG_VALUE: CLK_WaitClockReady:u32TimeOutCnt <- [DW_OP_constu 2, DW_OP_minus, DW_OP_stack_value] $r0
	@DEBUG_VALUE: CLK_WaitClockReady:u32Ret <- 1
	@DEBUG_VALUE: CLK_WaitClockReady:u32ClkMask <- 4
	@DEBUG_VALUE: CLK_EnablePLL:u32PllClkSrc <- [DW_OP_LLVM_entry_value 1] $r0
	@DEBUG_VALUE: CLK_EnablePLL:u32PllSrcClk <- 12000000
	@DEBUG_VALUE: CLK_EnablePLL:u32CLK_SRC <- $r11
	@DEBUG_VALUE: CLK_WaitClockReady:u32TimeOutCnt <- [DW_OP_constu 2, DW_OP_minus, DW_OP_stack_value] $r0
	.loc	2 974 17                        @ Library/StdDriver/src/clk.c:974:17
	ldr	r1, [r3]
	.loc	2 974 5 is_stmt 0               @ Library/StdDriver/src/clk.c:974:5
	lsls	r1, r1, #29
	bmi	.LBB15_93
.Ltmp370:
@ %bb.83:                               @   in Loop: Header=BB15_78 Depth=1
	@DEBUG_VALUE: CLK_WaitClockReady:u32TimeOutCnt <- [DW_OP_constu 2, DW_OP_minus, DW_OP_stack_value] $r0
	@DEBUG_VALUE: CLK_WaitClockReady:u32Ret <- 1
	@DEBUG_VALUE: CLK_WaitClockReady:u32ClkMask <- 4
	@DEBUG_VALUE: CLK_EnablePLL:u32PllClkSrc <- [DW_OP_LLVM_entry_value 1] $r0
	@DEBUG_VALUE: CLK_EnablePLL:u32PllSrcClk <- 12000000
	@DEBUG_VALUE: CLK_EnablePLL:u32CLK_SRC <- $r11
	@DEBUG_VALUE: CLK_WaitClockReady:u32TimeOutCnt <- [DW_OP_constu 3, DW_OP_minus, DW_OP_stack_value] $r0
	.loc	2 976 12 is_stmt 1              @ Library/StdDriver/src/clk.c:976:12
	cmp	r0, #3
	beq	.LBB15_95
.Ltmp371:
@ %bb.84:                               @   in Loop: Header=BB15_78 Depth=1
	@DEBUG_VALUE: CLK_WaitClockReady:u32TimeOutCnt <- [DW_OP_constu 3, DW_OP_minus, DW_OP_stack_value] $r0
	@DEBUG_VALUE: CLK_WaitClockReady:u32Ret <- 1
	@DEBUG_VALUE: CLK_WaitClockReady:u32ClkMask <- 4
	@DEBUG_VALUE: CLK_EnablePLL:u32PllClkSrc <- [DW_OP_LLVM_entry_value 1] $r0
	@DEBUG_VALUE: CLK_EnablePLL:u32PllSrcClk <- 12000000
	@DEBUG_VALUE: CLK_EnablePLL:u32CLK_SRC <- $r11
	@DEBUG_VALUE: CLK_WaitClockReady:u32TimeOutCnt <- [DW_OP_constu 3, DW_OP_minus, DW_OP_stack_value] $r0
	.loc	2 974 17                        @ Library/StdDriver/src/clk.c:974:17
	ldr	r1, [r3]
	.loc	2 974 5 is_stmt 0               @ Library/StdDriver/src/clk.c:974:5
	lsls	r1, r1, #29
	bmi	.LBB15_93
.Ltmp372:
@ %bb.85:                               @   in Loop: Header=BB15_78 Depth=1
	@DEBUG_VALUE: CLK_WaitClockReady:u32TimeOutCnt <- [DW_OP_constu 3, DW_OP_minus, DW_OP_stack_value] $r0
	@DEBUG_VALUE: CLK_WaitClockReady:u32Ret <- 1
	@DEBUG_VALUE: CLK_WaitClockReady:u32ClkMask <- 4
	@DEBUG_VALUE: CLK_EnablePLL:u32PllClkSrc <- [DW_OP_LLVM_entry_value 1] $r0
	@DEBUG_VALUE: CLK_EnablePLL:u32PllSrcClk <- 12000000
	@DEBUG_VALUE: CLK_EnablePLL:u32CLK_SRC <- $r11
	.loc	2 976 12 is_stmt 1              @ Library/StdDriver/src/clk.c:976:12
	subs	r0, #4
.Ltmp373:
	@DEBUG_VALUE: CLK_WaitClockReady:u32TimeOutCnt <- $r0
	.loc	2 976 12 is_stmt 0              @ Library/StdDriver/src/clk.c:976:12
	bne	.LBB15_78
	b	.LBB15_95
.Ltmp374:
.LBB15_86:
	@DEBUG_VALUE: CLK_WaitClockReady:u32Ret <- 1
	@DEBUG_VALUE: CLK_EnablePLL:u32PllClkSrc <- [DW_OP_LLVM_entry_value 1] $r0
	@DEBUG_VALUE: CLK_WaitClockReady:u32ClkMask <- 4
	@DEBUG_VALUE: CLK_EnablePLL:u32PllSrcClk <- 12000000
	@DEBUG_VALUE: CLK_EnablePLL:u32CLK_SRC <- $r11
	@DEBUG_VALUE: CLK_EnablePLL:u32PllFreq <- $r4
	.loc	2 0 12                          @ Library/StdDriver/src/clk.c:0:12
	movs	r0, #1
.Ltmp375:
.LBB15_87:
	@DEBUG_VALUE: CLK_WaitClockReady:u32Ret <- 1
	@DEBUG_VALUE: CLK_EnablePLL:u32PllClkSrc <- [DW_OP_LLVM_entry_value 1] $r0
	@DEBUG_VALUE: CLK_WaitClockReady:u32ClkMask <- 4
	@DEBUG_VALUE: CLK_EnablePLL:u32PllSrcClk <- 12000000
	@DEBUG_VALUE: CLK_EnablePLL:u32CLK_SRC <- $r11
	@DEBUG_VALUE: CLK_EnablePLL:u32PllFreq <- $r4
	@DEBUG_VALUE: CLK_WaitClockReady:u32TimeOutCnt <- $r0
	@DEBUG_VALUE: CLK_WaitClockReady:u32Ret <- 1
	.loc	2 983 8 is_stmt 1               @ Library/StdDriver/src/clk.c:983:8
	cbnz	r0, .LBB15_89
.Ltmp376:
.LBB15_88:
	@DEBUG_VALUE: CLK_WaitClockReady:u32Ret <- 1
	@DEBUG_VALUE: CLK_EnablePLL:u32PllClkSrc <- [DW_OP_LLVM_entry_value 1] $r0
	@DEBUG_VALUE: CLK_WaitClockReady:u32ClkMask <- 4
	@DEBUG_VALUE: CLK_EnablePLL:u32PllSrcClk <- 12000000
	@DEBUG_VALUE: CLK_EnablePLL:u32CLK_SRC <- $r11
	@DEBUG_VALUE: CLK_EnablePLL:u32PllFreq <- $r4
	.loc	2 0 8 is_stmt 0                 @ Library/StdDriver/src/clk.c:0:8
	mov.w	r0, #-1
.Ltmp377:
	.loc	2 984 26 is_stmt 1              @ Library/StdDriver/src/clk.c:984:26
	str	r0, [r7]
.Ltmp378:
.LBB15_89:
	@DEBUG_VALUE: CLK_EnablePLL:u32PllClkSrc <- [DW_OP_LLVM_entry_value 1] $r0
	@DEBUG_VALUE: CLK_EnablePLL:u32PllSrcClk <- 12000000
	@DEBUG_VALUE: CLK_EnablePLL:u32CLK_SRC <- $r11
	@DEBUG_VALUE: CLK_EnablePLL:u32PllFreq <- $r4
	@DEBUG_VALUE: CLK_GetPLLClockFreq:u32PllFreq <- 0
	@DEBUG_VALUE: CLK_GetPLLClockFreq:au8NoTbl <- undef
	.loc	2 1207 22                       @ Library/StdDriver/src/clk.c:1207:22
	ldr	r0, [r6, #-16]
.Ltmp379:
	@DEBUG_VALUE: CLK_GetPLLClockFreq:u32PllReg <- $r0
	.loc	2 1209 8                        @ Library/StdDriver/src/clk.c:1209:8
	tst.w	r0, #327680
	beq	.LBB15_91
.Ltmp380:
@ %bb.90:
	@DEBUG_VALUE: CLK_EnablePLL:u32PllClkSrc <- [DW_OP_LLVM_entry_value 1] $r0
	@DEBUG_VALUE: CLK_EnablePLL:u32PllSrcClk <- 12000000
	@DEBUG_VALUE: CLK_EnablePLL:u32CLK_SRC <- $r11
	@DEBUG_VALUE: CLK_EnablePLL:u32PllFreq <- $r4
	.loc	2 0 8 is_stmt 0                 @ Library/StdDriver/src/clk.c:0:8
	movs	r0, #0
.Ltmp381:
	@DEBUG_VALUE: CLK_EnablePLL:u32PllClk <- $r0
	.loc	2 939 5 epilogue_begin is_stmt 1 @ Library/StdDriver/src/clk.c:939:5
	add	sp, #160
	pop.w	{r4, r5, r6, r7, r8, r9, r10, r11, pc}
.Ltmp382:
.LBB15_91:
	@DEBUG_VALUE: CLK_GetPLLClockFreq:u32PllReg <- $r0
	@DEBUG_VALUE: CLK_GetPLLClockFreq:u32PllFreq <- 0
	@DEBUG_VALUE: CLK_EnablePLL:u32PllClkSrc <- [DW_OP_LLVM_entry_value 1] $r0
	@DEBUG_VALUE: CLK_EnablePLL:u32PllSrcClk <- 12000000
	@DEBUG_VALUE: CLK_EnablePLL:u32CLK_SRC <- $r11
	@DEBUG_VALUE: CLK_EnablePLL:u32PllFreq <- $r4
	.loc	2 1213 13                       @ Library/StdDriver/src/clk.c:1213:13
	lsls	r1, r0, #14
	bmi	.LBB15_97
.Ltmp383:
@ %bb.92:
	@DEBUG_VALUE: CLK_GetPLLClockFreq:u32PllReg <- $r0
	@DEBUG_VALUE: CLK_GetPLLClockFreq:u32PllFreq <- 0
	@DEBUG_VALUE: CLK_EnablePLL:u32PllClkSrc <- [DW_OP_LLVM_entry_value 1] $r0
	@DEBUG_VALUE: CLK_EnablePLL:u32PllSrcClk <- 12000000
	@DEBUG_VALUE: CLK_EnablePLL:u32CLK_SRC <- $r11
	@DEBUG_VALUE: CLK_EnablePLL:u32PllFreq <- $r4
	@DEBUG_VALUE: CLK_GetPLLClockFreq:u32FIN <- 12000000
	.loc	2 1237 17                       @ Library/StdDriver/src/clk.c:1237:17
	movw	r2, :lower16:.L__const.CLK_GetPLLClockFreq.au8NoTbl
	.loc	2 1237 63 is_stmt 0             @ Library/StdDriver/src/clk.c:1237:63
	ubfx	r1, r0, #14, #2
	.loc	2 1237 17                       @ Library/StdDriver/src/clk.c:1237:17
	movt	r2, :upper16:.L__const.CLK_GetPLLClockFreq.au8NoTbl
	ldrb	r1, [r2, r1]
	.loc	2 1239 53 is_stmt 1             @ Library/StdDriver/src/clk.c:1239:53
	ubfx	r2, r0, #9, #5
.Ltmp384:
	@DEBUG_VALUE: CLK_GetPLLClockFreq:u32NO <- $r1
	.loc	2 1238 29                       @ Library/StdDriver/src/clk.c:1238:29
	bfc	r0, #9, #23
.Ltmp385:
	@DEBUG_VALUE: CLK_GetPLLClockFreq:u32NF <- [DW_OP_plus_uconst 2, DW_OP_stack_value] $r0
	.loc	2 0 29 is_stmt 0                @ Library/StdDriver/src/clk.c:0:29
	movw	r3, #46875
	.loc	2 1242 38 is_stmt 1             @ Library/StdDriver/src/clk.c:1242:38
	muls	r0, r3, r0
.Ltmp386:
	.loc	2 0 38 is_stmt 0                @ Library/StdDriver/src/clk.c:0:38
	movw	r3, #36224
	.loc	2 1239 78 is_stmt 1             @ Library/StdDriver/src/clk.c:1239:78
	adds	r2, #1
.Ltmp387:
	@DEBUG_VALUE: CLK_GetPLLClockFreq:u32NR <- $r2
	.loc	2 0 78 is_stmt 0                @ Library/StdDriver/src/clk.c:0:78
	movt	r3, #91
	.loc	2 1242 38 is_stmt 1             @ Library/StdDriver/src/clk.c:1242:38
	add.w	r0, r3, r0, lsl #6
	.loc	2 1242 56 is_stmt 0             @ Library/StdDriver/src/clk.c:1242:56
	muls	r1, r2, r1
.Ltmp388:
	.loc	2 1242 47                       @ Library/StdDriver/src/clk.c:1242:47
	udiv	r0, r0, r1
	.loc	2 1242 71                       @ Library/StdDriver/src/clk.c:1242:71
	lsls	r0, r0, #3
.Ltmp389:
	@DEBUG_VALUE: CLK_GetPLLClockFreq:u32PllFreq <- $r0
	@DEBUG_VALUE: CLK_EnablePLL:u32PllClk <- $r0
	.loc	2 939 5 epilogue_begin is_stmt 1 @ Library/StdDriver/src/clk.c:939:5
	add	sp, #160
	pop.w	{r4, r5, r6, r7, r8, r9, r10, r11, pc}
.Ltmp390:
.LBB15_93:
	@DEBUG_VALUE: CLK_WaitClockReady:u32Ret <- 1
	@DEBUG_VALUE: CLK_WaitClockReady:u32ClkMask <- 4
	@DEBUG_VALUE: CLK_EnablePLL:u32PllClkSrc <- [DW_OP_LLVM_entry_value 1] $r0
	@DEBUG_VALUE: CLK_EnablePLL:u32PllSrcClk <- 12000000
	@DEBUG_VALUE: CLK_EnablePLL:u32CLK_SRC <- $r11
	.loc	2 0 5 is_stmt 0                 @ Library/StdDriver/src/clk.c:0:5
	movs	r0, #1
.Ltmp391:
.LBB15_94:
	@DEBUG_VALUE: CLK_WaitClockReady:u32Ret <- 1
	@DEBUG_VALUE: CLK_WaitClockReady:u32ClkMask <- 4
	@DEBUG_VALUE: CLK_EnablePLL:u32PllClkSrc <- [DW_OP_LLVM_entry_value 1] $r0
	@DEBUG_VALUE: CLK_EnablePLL:u32PllSrcClk <- 12000000
	@DEBUG_VALUE: CLK_EnablePLL:u32CLK_SRC <- $r11
	@DEBUG_VALUE: CLK_WaitClockReady:u32TimeOutCnt <- $r0
	@DEBUG_VALUE: CLK_WaitClockReady:u32Ret <- 1
	.loc	2 983 8 is_stmt 1               @ Library/StdDriver/src/clk.c:983:8
	cbnz	r0, .LBB15_96
.Ltmp392:
.LBB15_95:
	@DEBUG_VALUE: CLK_WaitClockReady:u32Ret <- 1
	@DEBUG_VALUE: CLK_WaitClockReady:u32ClkMask <- 4
	@DEBUG_VALUE: CLK_EnablePLL:u32PllClkSrc <- [DW_OP_LLVM_entry_value 1] $r0
	@DEBUG_VALUE: CLK_EnablePLL:u32PllSrcClk <- 12000000
	@DEBUG_VALUE: CLK_EnablePLL:u32CLK_SRC <- $r11
	.loc	2 0 8 is_stmt 0                 @ Library/StdDriver/src/clk.c:0:8
	mov.w	r0, #-1
.Ltmp393:
	.loc	2 984 26 is_stmt 1              @ Library/StdDriver/src/clk.c:984:26
	str	r0, [r2]
.Ltmp394:
.LBB15_96:
	@DEBUG_VALUE: CLK_EnablePLL:u32PllClkSrc <- [DW_OP_LLVM_entry_value 1] $r0
	@DEBUG_VALUE: CLK_EnablePLL:u32PllSrcClk <- 12000000
	@DEBUG_VALUE: CLK_EnablePLL:u32CLK_SRC <- $r11
	.loc	2 917 46                        @ Library/StdDriver/src/clk.c:917:46
	ldr	r0, [sp, #152]                  @ 4-byte Reload
	.loc	2 917 34 is_stmt 0              @ Library/StdDriver/src/clk.c:917:34
	movw	r1, #6912
	.loc	2 917 46                        @ Library/StdDriver/src/clk.c:917:46
	muls	r0, r7, r0
	.loc	2 917 34                        @ Library/StdDriver/src/clk.c:917:34
	movt	r1, #183
	udiv	r0, r1, r0
	.loc	2 917 73                        @ Library/StdDriver/src/clk.c:917:73
	muls	r0, r5, r0
	lsls	r0, r0, #1
.Ltmp395:
	@DEBUG_VALUE: CLK_EnablePLL:u32PllClk <- $r0
	@DEBUG_VALUE: CLK_EnablePLL:u32PllClk <- $r0
	.loc	2 939 5 epilogue_begin is_stmt 1 @ Library/StdDriver/src/clk.c:939:5
	add	sp, #160
	pop.w	{r4, r5, r6, r7, r8, r9, r10, r11, pc}
.Ltmp396:
.LBB15_97:
	@DEBUG_VALUE: CLK_EnablePLL:u32PllClkSrc <- [DW_OP_LLVM_entry_value 1] $r0
	@DEBUG_VALUE: CLK_EnablePLL:u32PllSrcClk <- 12000000
	@DEBUG_VALUE: CLK_EnablePLL:u32CLK_SRC <- $r11
	@DEBUG_VALUE: CLK_EnablePLL:u32PllFreq <- $r4
	.loc	2 0 5 is_stmt 0                 @ Library/StdDriver/src/clk.c:0:5
	movw	r0, #6912
	movt	r0, #183
.Ltmp397:
	@DEBUG_VALUE: CLK_EnablePLL:u32PllClk <- $r0
	.loc	2 939 5 epilogue_begin          @ Library/StdDriver/src/clk.c:939:5
	add	sp, #160
	pop.w	{r4, r5, r6, r7, r8, r9, r10, r11, pc}
.Ltmp398:
.LBB15_98:
	@DEBUG_VALUE: CLK_EnablePLL:u32MinNF <- $r4
	@DEBUG_VALUE: CLK_EnablePLL:u32MinNR <- $r3
	@DEBUG_VALUE: CLK_EnablePLL:u32Tmp3 <- $r7
	@DEBUG_VALUE: CLK_EnablePLL:u32NF <- $r4
	@DEBUG_VALUE: CLK_EnablePLL:u32MinNO <- [DW_OP_plus_uconst 156] [$sp+0]
	@DEBUG_VALUE: CLK_EnablePLL:u32PllFreq <- [DW_OP_plus_uconst 8] [$sp+0]
	@DEBUG_VALUE: CLK_EnablePLL:u32NO <- [DW_OP_plus_uconst 156] [$sp+0]
	@DEBUG_VALUE: CLK_EnablePLL:u32Min <- $r0
	@DEBUG_VALUE: CLK_EnablePLL:u32PllClkSrc <- [DW_OP_LLVM_entry_value 1] $r0
	@DEBUG_VALUE: CLK_EnablePLL:u32PllSrcClk <- 12000000
	@DEBUG_VALUE: CLK_EnablePLL:u32CLK_SRC <- $r11
	.loc	2 0 5                           @ Library/StdDriver/src/clk.c:0:5
	ldr	r1, [sp, #156]                  @ 4-byte Reload
	strd	r4, r3, [sp, #148]              @ 8-byte Folded Spill
	b	.LBB15_77
.Lfunc_end15:
	.size	CLK_EnablePLL, .Lfunc_end15-CLK_EnablePLL
	.cfi_endproc
	.cantunwind
	.fnend
                                        @ -- End function
	.hidden	CLK_SetHCLK                     @ -- Begin function CLK_SetHCLK
	.globl	CLK_SetHCLK
	.p2align	2
	.type	CLK_SetHCLK,%function
	.code	16                              @ @CLK_SetHCLK
	.thumb_func
CLK_SetHCLK:
.Lfunc_begin16:
	.loc	2 336 0 is_stmt 1               @ Library/StdDriver/src/clk.c:336:0
	.fnstart
	.cfi_startproc
@ %bb.0:
	@DEBUG_VALUE: CLK_SetHCLK:u32ClkSrc <- $r0
	@DEBUG_VALUE: CLK_SetHCLK:u32ClkDiv <- $r1
	.save	{r4, r5, r7, lr}
	push	{r4, r5, r7, lr}
	.cfi_def_cfa_offset 16
	.cfi_offset lr, -4
	.cfi_offset r7, -8
	.cfi_offset r5, -12
	.cfi_offset r4, -16
	movw	r4, #592
	movt	r4, #16384
.Ltmp399:
	.loc	2 340 23 prologue_end           @ Library/StdDriver/src/clk.c:340:23
	ldr	r5, [r4]
	.loc	2 343 17                        @ Library/StdDriver/src/clk.c:343:17
	ldr	r2, [r4, #-80]
.Ltmp400:
	.loc	2 973 22                        @ Library/StdDriver/src/clk.c:973:22
	movw	r12, :lower16:g_CLK_i32ErrCode
.Ltmp401:
	.loc	2 343 17                        @ Library/StdDriver/src/clk.c:343:17
	orr	r2, r2, #4
	str	r2, [r4, #-80]
.Ltmp402:
	@DEBUG_VALUE: CLK_WaitClockReady:u32ClkMask <- 16
	.loc	2 970 30                        @ Library/StdDriver/src/clk.c:970:30
	movw	r2, :lower16:SystemCoreClock
	movt	r2, :upper16:SystemCoreClock
	ldr	r2, [r2]
	.loc	2 973 22                        @ Library/StdDriver/src/clk.c:973:22
	movt	r12, :upper16:g_CLK_i32ErrCode
	.loc	2 970 46                        @ Library/StdDriver/src/clk.c:970:46
	lsrs	r3, r2, #1
.Ltmp403:
	@DEBUG_VALUE: CLK_WaitClockReady:u32Ret <- 1
	@DEBUG_VALUE: CLK_WaitClockReady:u32TimeOutCnt <- $r3
	.loc	2 0 46 is_stmt 0                @ Library/StdDriver/src/clk.c:0:46
	movs	r2, #0
	.loc	2 973 22 is_stmt 1              @ Library/StdDriver/src/clk.c:973:22
	str.w	r2, [r12]
.Ltmp404:
.LBB16_1:                               @ =>This Inner Loop Header: Depth=1
	@DEBUG_VALUE: CLK_WaitClockReady:u32TimeOutCnt <- $r3
	@DEBUG_VALUE: CLK_WaitClockReady:u32Ret <- 1
	@DEBUG_VALUE: CLK_WaitClockReady:u32ClkMask <- 16
	@DEBUG_VALUE: CLK_SetHCLK:u32ClkDiv <- $r1
	@DEBUG_VALUE: CLK_SetHCLK:u32ClkSrc <- $r0
	@DEBUG_VALUE: CLK_WaitClockReady:u32TimeOutCnt <- $r3
	.loc	2 974 17                        @ Library/StdDriver/src/clk.c:974:17
	ldr	r2, [r4]
	.loc	2 974 5 is_stmt 0               @ Library/StdDriver/src/clk.c:974:5
	lsls	r2, r2, #27
	bmi	.LBB16_10
.Ltmp405:
@ %bb.2:                                @   in Loop: Header=BB16_1 Depth=1
	@DEBUG_VALUE: CLK_WaitClockReady:u32TimeOutCnt <- $r3
	@DEBUG_VALUE: CLK_WaitClockReady:u32Ret <- 1
	@DEBUG_VALUE: CLK_WaitClockReady:u32ClkMask <- 16
	@DEBUG_VALUE: CLK_SetHCLK:u32ClkDiv <- $r1
	@DEBUG_VALUE: CLK_SetHCLK:u32ClkSrc <- $r0
	@DEBUG_VALUE: CLK_WaitClockReady:u32TimeOutCnt <- [DW_OP_constu 1, DW_OP_minus, DW_OP_stack_value] $r3
	.loc	2 976 12 is_stmt 1              @ Library/StdDriver/src/clk.c:976:12
	cmp	r3, #1
	beq	.LBB16_11
.Ltmp406:
@ %bb.3:                                @   in Loop: Header=BB16_1 Depth=1
	@DEBUG_VALUE: CLK_WaitClockReady:u32TimeOutCnt <- [DW_OP_constu 1, DW_OP_minus, DW_OP_stack_value] $r3
	@DEBUG_VALUE: CLK_WaitClockReady:u32Ret <- 1
	@DEBUG_VALUE: CLK_WaitClockReady:u32ClkMask <- 16
	@DEBUG_VALUE: CLK_SetHCLK:u32ClkDiv <- $r1
	@DEBUG_VALUE: CLK_SetHCLK:u32ClkSrc <- $r0
	@DEBUG_VALUE: CLK_WaitClockReady:u32TimeOutCnt <- [DW_OP_constu 1, DW_OP_minus, DW_OP_stack_value] $r3
	.loc	2 974 17                        @ Library/StdDriver/src/clk.c:974:17
	ldr	r2, [r4]
	.loc	2 974 5 is_stmt 0               @ Library/StdDriver/src/clk.c:974:5
	lsls	r2, r2, #27
	bmi	.LBB16_9
.Ltmp407:
@ %bb.4:                                @   in Loop: Header=BB16_1 Depth=1
	@DEBUG_VALUE: CLK_WaitClockReady:u32TimeOutCnt <- [DW_OP_constu 1, DW_OP_minus, DW_OP_stack_value] $r3
	@DEBUG_VALUE: CLK_WaitClockReady:u32Ret <- 1
	@DEBUG_VALUE: CLK_WaitClockReady:u32ClkMask <- 16
	@DEBUG_VALUE: CLK_SetHCLK:u32ClkDiv <- $r1
	@DEBUG_VALUE: CLK_SetHCLK:u32ClkSrc <- $r0
	@DEBUG_VALUE: CLK_WaitClockReady:u32TimeOutCnt <- [DW_OP_constu 2, DW_OP_minus, DW_OP_stack_value] $r3
	.loc	2 976 12 is_stmt 1              @ Library/StdDriver/src/clk.c:976:12
	cmp	r3, #2
	beq	.LBB16_11
.Ltmp408:
@ %bb.5:                                @   in Loop: Header=BB16_1 Depth=1
	@DEBUG_VALUE: CLK_WaitClockReady:u32TimeOutCnt <- [DW_OP_constu 2, DW_OP_minus, DW_OP_stack_value] $r3
	@DEBUG_VALUE: CLK_WaitClockReady:u32Ret <- 1
	@DEBUG_VALUE: CLK_WaitClockReady:u32ClkMask <- 16
	@DEBUG_VALUE: CLK_SetHCLK:u32ClkDiv <- $r1
	@DEBUG_VALUE: CLK_SetHCLK:u32ClkSrc <- $r0
	@DEBUG_VALUE: CLK_WaitClockReady:u32TimeOutCnt <- [DW_OP_constu 2, DW_OP_minus, DW_OP_stack_value] $r3
	.loc	2 974 17                        @ Library/StdDriver/src/clk.c:974:17
	ldr	r2, [r4]
	.loc	2 974 5 is_stmt 0               @ Library/StdDriver/src/clk.c:974:5
	lsls	r2, r2, #27
	bmi	.LBB16_9
.Ltmp409:
@ %bb.6:                                @   in Loop: Header=BB16_1 Depth=1
	@DEBUG_VALUE: CLK_WaitClockReady:u32TimeOutCnt <- [DW_OP_constu 2, DW_OP_minus, DW_OP_stack_value] $r3
	@DEBUG_VALUE: CLK_WaitClockReady:u32Ret <- 1
	@DEBUG_VALUE: CLK_WaitClockReady:u32ClkMask <- 16
	@DEBUG_VALUE: CLK_SetHCLK:u32ClkDiv <- $r1
	@DEBUG_VALUE: CLK_SetHCLK:u32ClkSrc <- $r0
	@DEBUG_VALUE: CLK_WaitClockReady:u32TimeOutCnt <- [DW_OP_constu 3, DW_OP_minus, DW_OP_stack_value] $r3
	.loc	2 976 12 is_stmt 1              @ Library/StdDriver/src/clk.c:976:12
	cmp	r3, #3
	beq	.LBB16_11
.Ltmp410:
@ %bb.7:                                @   in Loop: Header=BB16_1 Depth=1
	@DEBUG_VALUE: CLK_WaitClockReady:u32TimeOutCnt <- [DW_OP_constu 3, DW_OP_minus, DW_OP_stack_value] $r3
	@DEBUG_VALUE: CLK_WaitClockReady:u32Ret <- 1
	@DEBUG_VALUE: CLK_WaitClockReady:u32ClkMask <- 16
	@DEBUG_VALUE: CLK_SetHCLK:u32ClkDiv <- $r1
	@DEBUG_VALUE: CLK_SetHCLK:u32ClkSrc <- $r0
	@DEBUG_VALUE: CLK_WaitClockReady:u32TimeOutCnt <- [DW_OP_constu 3, DW_OP_minus, DW_OP_stack_value] $r3
	.loc	2 974 17                        @ Library/StdDriver/src/clk.c:974:17
	ldr	r2, [r4]
	.loc	2 974 5 is_stmt 0               @ Library/StdDriver/src/clk.c:974:5
	lsls	r2, r2, #27
	bmi	.LBB16_9
.Ltmp411:
@ %bb.8:                                @   in Loop: Header=BB16_1 Depth=1
	@DEBUG_VALUE: CLK_WaitClockReady:u32TimeOutCnt <- [DW_OP_constu 3, DW_OP_minus, DW_OP_stack_value] $r3
	@DEBUG_VALUE: CLK_WaitClockReady:u32Ret <- 1
	@DEBUG_VALUE: CLK_WaitClockReady:u32ClkMask <- 16
	@DEBUG_VALUE: CLK_SetHCLK:u32ClkDiv <- $r1
	@DEBUG_VALUE: CLK_SetHCLK:u32ClkSrc <- $r0
	.loc	2 976 12 is_stmt 1              @ Library/StdDriver/src/clk.c:976:12
	subs	r3, #4
.Ltmp412:
	@DEBUG_VALUE: CLK_WaitClockReady:u32TimeOutCnt <- $r3
	.loc	2 976 12 is_stmt 0              @ Library/StdDriver/src/clk.c:976:12
	bne	.LBB16_1
	b	.LBB16_11
.Ltmp413:
.LBB16_9:
	@DEBUG_VALUE: CLK_WaitClockReady:u32Ret <- 1
	@DEBUG_VALUE: CLK_WaitClockReady:u32ClkMask <- 16
	@DEBUG_VALUE: CLK_SetHCLK:u32ClkDiv <- $r1
	@DEBUG_VALUE: CLK_SetHCLK:u32ClkSrc <- $r0
	.loc	2 0 12                          @ Library/StdDriver/src/clk.c:0:12
	movs	r3, #1
.Ltmp414:
.LBB16_10:
	@DEBUG_VALUE: CLK_WaitClockReady:u32Ret <- 1
	@DEBUG_VALUE: CLK_WaitClockReady:u32ClkMask <- 16
	@DEBUG_VALUE: CLK_SetHCLK:u32ClkDiv <- $r1
	@DEBUG_VALUE: CLK_SetHCLK:u32ClkSrc <- $r0
	@DEBUG_VALUE: CLK_WaitClockReady:u32TimeOutCnt <- $r3
	@DEBUG_VALUE: CLK_WaitClockReady:u32Ret <- 1
	.loc	2 983 8 is_stmt 1               @ Library/StdDriver/src/clk.c:983:8
	cbnz	r3, .LBB16_12
.Ltmp415:
.LBB16_11:
	@DEBUG_VALUE: CLK_WaitClockReady:u32Ret <- 1
	@DEBUG_VALUE: CLK_WaitClockReady:u32ClkMask <- 16
	@DEBUG_VALUE: CLK_SetHCLK:u32ClkDiv <- $r1
	@DEBUG_VALUE: CLK_SetHCLK:u32ClkSrc <- $r0
	.loc	2 0 8 is_stmt 0                 @ Library/StdDriver/src/clk.c:0:8
	mov.w	r2, #-1
.Ltmp416:
	.loc	2 984 26 is_stmt 1              @ Library/StdDriver/src/clk.c:984:26
	str.w	r2, [r12]
.Ltmp417:
.LBB16_12:
	@DEBUG_VALUE: CLK_SetHCLK:u32ClkDiv <- $r1
	@DEBUG_VALUE: CLK_SetHCLK:u32ClkSrc <- $r0
	.loc	2 345 26                        @ Library/StdDriver/src/clk.c:345:26
	ldr	r2, [r4, #-64]
	.loc	2 345 64 is_stmt 0              @ Library/StdDriver/src/clk.c:345:64
	orr	r2, r2, #7
	.loc	2 345 18                        @ Library/StdDriver/src/clk.c:345:18
	str	r2, [r4, #-64]
	.loc	2 348 26 is_stmt 1              @ Library/StdDriver/src/clk.c:348:26
	ldr	r2, [r4, #-48]
	.loc	2 348 34 is_stmt 0              @ Library/StdDriver/src/clk.c:348:34
	bic	r2, r2, #15
	.loc	2 348 64                        @ Library/StdDriver/src/clk.c:348:64
	orrs	r1, r2
.Ltmp418:
	@DEBUG_VALUE: CLK_SetHCLK:u32ClkDiv <- [DW_OP_LLVM_entry_value 1] $r1
	.loc	2 348 18                        @ Library/StdDriver/src/clk.c:348:18
	str	r1, [r4, #-48]
	.loc	2 351 26 is_stmt 1              @ Library/StdDriver/src/clk.c:351:26
	ldr	r1, [r4, #-64]
	.loc	2 351 34 is_stmt 0              @ Library/StdDriver/src/clk.c:351:34
	bic	r1, r1, #7
	.loc	2 351 64                        @ Library/StdDriver/src/clk.c:351:64
	orrs	r0, r1
.Ltmp419:
	@DEBUG_VALUE: CLK_SetHCLK:u32ClkSrc <- [DW_OP_LLVM_entry_value 1] $r0
	.loc	2 351 18                        @ Library/StdDriver/src/clk.c:351:18
	str	r0, [r4, #-64]
	.loc	2 354 5 is_stmt 1               @ Library/StdDriver/src/clk.c:354:5
	bl	SystemCoreClockUpdate
.Ltmp420:
	.loc	2 357 8                         @ Library/StdDriver/src/clk.c:357:8
	lsls	r0, r5, #27
	.loc	2 361 1                         @ Library/StdDriver/src/clk.c:361:1
	it	mi
	.loc	2 361 1 epilogue_begin is_stmt 0 @ Library/StdDriver/src/clk.c:361:1
	popmi	{r4, r5, r7, pc}
.Ltmp421:
.LBB16_13:
	@DEBUG_VALUE: CLK_SetHCLK:u32ClkSrc <- [DW_OP_LLVM_entry_value 1] $r0
	@DEBUG_VALUE: CLK_SetHCLK:u32ClkDiv <- [DW_OP_LLVM_entry_value 1] $r1
	.loc	2 359 21 is_stmt 1              @ Library/StdDriver/src/clk.c:359:21
	ldr	r0, [r4, #-80]
	bic	r0, r0, #4
	str	r0, [r4, #-80]
.Ltmp422:
	.loc	2 361 1 epilogue_begin          @ Library/StdDriver/src/clk.c:361:1
	pop	{r4, r5, r7, pc}
.Ltmp423:
.Lfunc_end16:
	.size	CLK_SetHCLK, .Lfunc_end16-CLK_SetHCLK
	.cfi_endproc
	.cantunwind
	.fnend
                                        @ -- End function
	.hidden	CLK_SetSysTickClockSrc          @ -- Begin function CLK_SetSysTickClockSrc
	.globl	CLK_SetSysTickClockSrc
	.p2align	2
	.type	CLK_SetSysTickClockSrc,%function
	.code	16                              @ @CLK_SetSysTickClockSrc
	.thumb_func
CLK_SetSysTickClockSrc:
.Lfunc_begin17:
	.loc	2 578 0                         @ Library/StdDriver/src/clk.c:578:0
	.fnstart
	.cfi_startproc
@ %bb.0:
	@DEBUG_VALUE: CLK_SetSysTickClockSrc:u32ClkSrc <- $r0
	movw	r1, #528
	movt	r1, #16384
.Ltmp424:
	.loc	2 579 26 prologue_end           @ Library/StdDriver/src/clk.c:579:26
	ldr	r2, [r1]
	.loc	2 579 34 is_stmt 0              @ Library/StdDriver/src/clk.c:579:34
	bic	r2, r2, #56
	.loc	2 579 63                        @ Library/StdDriver/src/clk.c:579:63
	orrs	r0, r2
.Ltmp425:
	@DEBUG_VALUE: CLK_SetSysTickClockSrc:u32ClkSrc <- [DW_OP_LLVM_entry_value 1] $r0
	.loc	2 579 18                        @ Library/StdDriver/src/clk.c:579:18
	str	r0, [r1]
	.loc	2 581 1 is_stmt 1               @ Library/StdDriver/src/clk.c:581:1
	bx	lr
.Ltmp426:
.Lfunc_end17:
	.size	CLK_SetSysTickClockSrc, .Lfunc_end17-CLK_SetSysTickClockSrc
	.cfi_endproc
	.cantunwind
	.fnend
                                        @ -- End function
	.hidden	CLK_EnableXtalRC                @ -- Begin function CLK_EnableXtalRC
	.globl	CLK_EnableXtalRC
	.p2align	2
	.type	CLK_EnableXtalRC,%function
	.code	16                              @ @CLK_EnableXtalRC
	.thumb_func
CLK_EnableXtalRC:
.Lfunc_begin18:
	.loc	2 595 0                         @ Library/StdDriver/src/clk.c:595:0
	.fnstart
	.cfi_startproc
@ %bb.0:
	@DEBUG_VALUE: CLK_EnableXtalRC:u32ClkMask <- $r0
	movw	r1, #512
	movt	r1, #16384
.Ltmp427:
	.loc	2 596 17 prologue_end           @ Library/StdDriver/src/clk.c:596:17
	ldr	r2, [r1]
	orrs	r0, r2
.Ltmp428:
	@DEBUG_VALUE: CLK_EnableXtalRC:u32ClkMask <- [DW_OP_LLVM_entry_value 1] $r0
	str	r0, [r1]
	.loc	2 597 1                         @ Library/StdDriver/src/clk.c:597:1
	bx	lr
.Ltmp429:
.Lfunc_end18:
	.size	CLK_EnableXtalRC, .Lfunc_end18-CLK_EnableXtalRC
	.cfi_endproc
	.cantunwind
	.fnend
                                        @ -- End function
	.hidden	CLK_DisableXtalRC               @ -- Begin function CLK_DisableXtalRC
	.globl	CLK_DisableXtalRC
	.p2align	2
	.type	CLK_DisableXtalRC,%function
	.code	16                              @ @CLK_DisableXtalRC
	.thumb_func
CLK_DisableXtalRC:
.Lfunc_begin19:
	.loc	2 611 0                         @ Library/StdDriver/src/clk.c:611:0
	.fnstart
	.cfi_startproc
@ %bb.0:
	@DEBUG_VALUE: CLK_DisableXtalRC:u32ClkMask <- $r0
	movw	r1, #512
	movt	r1, #16384
.Ltmp430:
	.loc	2 612 17 prologue_end           @ Library/StdDriver/src/clk.c:612:17
	ldr	r2, [r1]
	bic.w	r0, r2, r0
.Ltmp431:
	@DEBUG_VALUE: CLK_DisableXtalRC:u32ClkMask <- [DW_OP_LLVM_entry_value 1] $r0
	str	r0, [r1]
	.loc	2 613 1                         @ Library/StdDriver/src/clk.c:613:1
	bx	lr
.Ltmp432:
.Lfunc_end19:
	.size	CLK_DisableXtalRC, .Lfunc_end19-CLK_DisableXtalRC
	.cfi_endproc
	.cantunwind
	.fnend
                                        @ -- End function
	.hidden	CLK_DisablePLL                  @ -- Begin function CLK_DisablePLL
	.globl	CLK_DisablePLL
	.p2align	2
	.type	CLK_DisablePLL,%function
	.code	16                              @ @CLK_DisablePLL
	.thumb_func
CLK_DisablePLL:
.Lfunc_begin20:
	.loc	2 950 0                         @ Library/StdDriver/src/clk.c:950:0
	.fnstart
	.cfi_startproc
@ %bb.0:
	movw	r0, #576
	movt	r0, #16384
.Ltmp433:
	.loc	2 951 17 prologue_end           @ Library/StdDriver/src/clk.c:951:17
	ldr	r1, [r0]
	orr	r1, r1, #65536
	str	r1, [r0]
	.loc	2 952 1                         @ Library/StdDriver/src/clk.c:952:1
	bx	lr
.Ltmp434:
.Lfunc_end20:
	.size	CLK_DisablePLL, .Lfunc_end20-CLK_DisablePLL
	.cfi_endproc
	.cantunwind
	.fnend
                                        @ -- End function
	.hidden	CLK_GetPLLClockFreq             @ -- Begin function CLK_GetPLLClockFreq
	.globl	CLK_GetPLLClockFreq
	.p2align	2
	.type	CLK_GetPLLClockFreq,%function
	.code	16                              @ @CLK_GetPLLClockFreq
	.thumb_func
CLK_GetPLLClockFreq:
.Lfunc_begin21:
	.loc	2 1202 0                        @ Library/StdDriver/src/clk.c:1202:0
	.fnstart
	.cfi_startproc
@ %bb.0:
	@DEBUG_VALUE: CLK_GetPLLClockFreq:u32PllFreq <- 0
	movw	r0, #576
	movt	r0, #16384
.Ltmp435:
	.loc	2 1207 22 prologue_end          @ Library/StdDriver/src/clk.c:1207:22
	ldr	r0, [r0]
.Ltmp436:
	@DEBUG_VALUE: CLK_GetPLLClockFreq:u32PllReg <- $r0
	.loc	2 1209 8                        @ Library/StdDriver/src/clk.c:1209:8
	tst.w	r0, #327680
	itt	ne
	movne	r0, #0
.Ltmp437:
	@DEBUG_VALUE: CLK_GetPLLClockFreq:u32PllFreq <- $r0
	.loc	2 1245 5                        @ Library/StdDriver/src/clk.c:1245:5
	bxne	lr
.Ltmp438:
.LBB21_1:
	@DEBUG_VALUE: CLK_GetPLLClockFreq:u32PllFreq <- $r0
	.loc	2 1213 13                       @ Library/StdDriver/src/clk.c:1213:13
	lsls	r1, r0, #14
	ittt	mi
	movwmi	r0, #6912
.Ltmp439:
	.loc	2 0 13 is_stmt 0                @ Library/StdDriver/src/clk.c:0:13
	movtmi	r0, #183
.Ltmp440:
	@DEBUG_VALUE: CLK_GetPLLClockFreq:u32PllFreq <- $r0
	.loc	2 1245 5 is_stmt 1              @ Library/StdDriver/src/clk.c:1245:5
	bxmi	lr
.Ltmp441:
.LBB21_2:
	@DEBUG_VALUE: CLK_GetPLLClockFreq:u32PllFreq <- $r0
	@DEBUG_VALUE: CLK_GetPLLClockFreq:u32FIN <- 12000000
	.loc	2 1237 17                       @ Library/StdDriver/src/clk.c:1237:17
	movw	r2, :lower16:.L__const.CLK_GetPLLClockFreq.au8NoTbl
	.loc	2 1237 63 is_stmt 0             @ Library/StdDriver/src/clk.c:1237:63
	ubfx	r1, r0, #14, #2
	.loc	2 1237 17                       @ Library/StdDriver/src/clk.c:1237:17
	movt	r2, :upper16:.L__const.CLK_GetPLLClockFreq.au8NoTbl
	ldrb	r1, [r2, r1]
	.loc	2 1239 53 is_stmt 1             @ Library/StdDriver/src/clk.c:1239:53
	ubfx	r2, r0, #9, #5
.Ltmp442:
	@DEBUG_VALUE: CLK_GetPLLClockFreq:u32NO <- $r1
	.loc	2 1238 29                       @ Library/StdDriver/src/clk.c:1238:29
	bfc	r0, #9, #23
.Ltmp443:
	@DEBUG_VALUE: CLK_GetPLLClockFreq:u32NF <- [DW_OP_plus_uconst 2, DW_OP_stack_value] $r0
	.loc	2 0 29 is_stmt 0                @ Library/StdDriver/src/clk.c:0:29
	movw	r3, #46875
	.loc	2 1242 38 is_stmt 1             @ Library/StdDriver/src/clk.c:1242:38
	muls	r0, r3, r0
.Ltmp444:
	.loc	2 0 38 is_stmt 0                @ Library/StdDriver/src/clk.c:0:38
	movw	r3, #36224
	.loc	2 1239 78 is_stmt 1             @ Library/StdDriver/src/clk.c:1239:78
	adds	r2, #1
.Ltmp445:
	@DEBUG_VALUE: CLK_GetPLLClockFreq:u32NR <- $r2
	.loc	2 0 78 is_stmt 0                @ Library/StdDriver/src/clk.c:0:78
	movt	r3, #91
	.loc	2 1242 38 is_stmt 1             @ Library/StdDriver/src/clk.c:1242:38
	add.w	r0, r3, r0, lsl #6
	.loc	2 1242 56 is_stmt 0             @ Library/StdDriver/src/clk.c:1242:56
	muls	r1, r2, r1
.Ltmp446:
	.loc	2 1242 47                       @ Library/StdDriver/src/clk.c:1242:47
	udiv	r0, r0, r1
	.loc	2 1242 71                       @ Library/StdDriver/src/clk.c:1242:71
	lsls	r0, r0, #3
.Ltmp447:
	@DEBUG_VALUE: CLK_GetPLLClockFreq:u32PllFreq <- $r0
	@DEBUG_VALUE: CLK_GetPLLClockFreq:u32PllFreq <- $r0
	.loc	2 1245 5 is_stmt 1              @ Library/StdDriver/src/clk.c:1245:5
	bx	lr
.Ltmp448:
.Lfunc_end21:
	.size	CLK_GetPLLClockFreq, .Lfunc_end21-CLK_GetPLLClockFreq
	.cfi_endproc
	.cantunwind
	.fnend
                                        @ -- End function
	.hidden	CLK_EnableSysTick               @ -- Begin function CLK_EnableSysTick
	.globl	CLK_EnableSysTick
	.p2align	2
	.type	CLK_EnableSysTick,%function
	.code	16                              @ @CLK_EnableSysTick
	.thumb_func
CLK_EnableSysTick:
.Lfunc_begin22:
	.loc	2 1004 0                        @ Library/StdDriver/src/clk.c:1004:0
	.fnstart
	.cfi_startproc
@ %bb.0:
	@DEBUG_VALUE: CLK_EnableSysTick:u32ClkSrc <- $r0
	@DEBUG_VALUE: CLK_EnableSysTick:u32Count <- $r1
	movw	r2, #57360
	movt	r2, #57344
	movs	r3, #0
.Ltmp449:
	.loc	2 1009 9 prologue_end           @ Library/StdDriver/src/clk.c:1009:9
	cmp	r0, #4
	.loc	2 1006 19                       @ Library/StdDriver/src/clk.c:1006:19
	str	r3, [r2]
	.loc	2 1009 9                        @ Library/StdDriver/src/clk.c:1009:9
	bne	.LBB22_2
.Ltmp450:
@ %bb.1:
	@DEBUG_VALUE: CLK_EnableSysTick:u32Count <- $r1
	@DEBUG_VALUE: CLK_EnableSysTick:u32ClkSrc <- $r0
	.loc	2 1011 23                       @ Library/StdDriver/src/clk.c:1011:23
	ldr	r0, [r2]
.Ltmp451:
	@DEBUG_VALUE: CLK_EnableSysTick:u32ClkSrc <- [DW_OP_LLVM_entry_value 1] $r0
	orr	r0, r0, #4
	str	r0, [r2]
	b	.LBB22_3
.Ltmp452:
.LBB22_2:
	@DEBUG_VALUE: CLK_EnableSysTick:u32Count <- $r1
	@DEBUG_VALUE: CLK_EnableSysTick:u32ClkSrc <- $r0
	.loc	2 0 23 is_stmt 0                @ Library/StdDriver/src/clk.c:0:23
	movw	r12, #528
	movt	r12, #16384
.Ltmp453:
	.loc	2 1015 30 is_stmt 1             @ Library/StdDriver/src/clk.c:1015:30
	ldr.w	r3, [r12]
	.loc	2 1015 38 is_stmt 0             @ Library/StdDriver/src/clk.c:1015:38
	bic	r3, r3, #56
	.loc	2 1015 67                       @ Library/StdDriver/src/clk.c:1015:67
	orrs	r0, r3
.Ltmp454:
	@DEBUG_VALUE: CLK_EnableSysTick:u32ClkSrc <- [DW_OP_LLVM_entry_value 1] $r0
	.loc	2 1015 22                       @ Library/StdDriver/src/clk.c:1015:22
	str.w	r0, [r12]
.Ltmp455:
.LBB22_3:
	@DEBUG_VALUE: CLK_EnableSysTick:u32ClkSrc <- [DW_OP_LLVM_entry_value 1] $r0
	@DEBUG_VALUE: CLK_EnableSysTick:u32Count <- $r1
	.loc	2 0 22                          @ Library/StdDriver/src/clk.c:0:22
	movs	r0, #0
	.loc	2 1019 19 is_stmt 1             @ Library/StdDriver/src/clk.c:1019:19
	str	r1, [r2, #4]
	.loc	2 1022 18                       @ Library/StdDriver/src/clk.c:1022:18
	str	r0, [r2, #8]
	.loc	2 1025 19                       @ Library/StdDriver/src/clk.c:1025:19
	ldr	r0, [r2]
	orr	r0, r0, #3
	str	r0, [r2]
	.loc	2 1026 1                        @ Library/StdDriver/src/clk.c:1026:1
	bx	lr
.Ltmp456:
.Lfunc_end22:
	.size	CLK_EnableSysTick, .Lfunc_end22-CLK_EnableSysTick
	.cfi_endproc
	.cantunwind
	.fnend
                                        @ -- End function
	.hidden	CLK_DisableSysTick              @ -- Begin function CLK_DisableSysTick
	.globl	CLK_DisableSysTick
	.p2align	2
	.type	CLK_DisableSysTick,%function
	.code	16                              @ @CLK_DisableSysTick
	.thumb_func
CLK_DisableSysTick:
.Lfunc_begin23:
	.loc	2 1035 0                        @ Library/StdDriver/src/clk.c:1035:0
	.fnstart
	.cfi_startproc
@ %bb.0:
	movw	r0, #57360
	movt	r0, #57344
	movs	r1, #0
.Ltmp457:
	.loc	2 1037 19 prologue_end          @ Library/StdDriver/src/clk.c:1037:19
	str	r1, [r0]
	.loc	2 1038 1                        @ Library/StdDriver/src/clk.c:1038:1
	bx	lr
.Ltmp458:
.Lfunc_end23:
	.size	CLK_DisableSysTick, .Lfunc_end23-CLK_DisableSysTick
	.cfi_endproc
	.cantunwind
	.fnend
                                        @ -- End function
	.hidden	CLK_SetPowerDownMode            @ -- Begin function CLK_SetPowerDownMode
	.globl	CLK_SetPowerDownMode
	.p2align	2
	.type	CLK_SetPowerDownMode,%function
	.code	16                              @ @CLK_SetPowerDownMode
	.thumb_func
CLK_SetPowerDownMode:
.Lfunc_begin24:
	.loc	2 1056 0                        @ Library/StdDriver/src/clk.c:1056:0
	.fnstart
	.cfi_startproc
@ %bb.0:
	@DEBUG_VALUE: CLK_SetPowerDownMode:u32PDMode <- $r0
	movw	r1, #656
	movt	r1, #16384
.Ltmp459:
	.loc	2 1057 15 prologue_end          @ Library/StdDriver/src/clk.c:1057:15
	ldr	r2, [r1, #-156]
	.loc	2 1057 23 is_stmt 0             @ Library/StdDriver/src/clk.c:1057:23
	uxtb	r2, r2
.Ltmp460:
	.loc	2 1057 9                        @ Library/StdDriver/src/clk.c:1057:9
	cmp	r2, #1
	bne	.LBB24_4
.Ltmp461:
@ %bb.1:
	@DEBUG_VALUE: CLK_SetPowerDownMode:u32PDMode <- $r0
	.loc	2 1059 12 is_stmt 1             @ Library/StdDriver/src/clk.c:1059:12
	cmp	r0, #5
	beq	.LBB24_14
.Ltmp462:
@ %bb.2:
	@DEBUG_VALUE: CLK_SetPowerDownMode:u32PDMode <- $r0
	cmp	r0, #4
	bne	.LBB24_19
.Ltmp463:
@ %bb.3:
	@DEBUG_VALUE: CLK_SetPowerDownMode:u32PDMode <- $r0
	@DEBUG_VALUE: CLK_SetPowerDownMode:u32PDMode <- 4
	.loc	2 1062 33                       @ Library/StdDriver/src/clk.c:1062:33
	ldr	r0, [r1]
	movs	r2, #1
	.loc	2 1062 69 is_stmt 0             @ Library/StdDriver/src/clk.c:1062:69
	bfi	r0, r2, #4, #3
	b	.LBB24_15
.Ltmp464:
.LBB24_4:
	@DEBUG_VALUE: CLK_SetPowerDownMode:u32PDMode <- $r0
	.loc	2 1073 50 is_stmt 1             @ Library/StdDriver/src/clk.c:1073:50
	bic	r2, r0, #1
	cmp	r2, #4
	bne	.LBB24_19
.Ltmp465:
@ %bb.5:
	@DEBUG_VALUE: CLK_SetPowerDownMode:u32PDMode <- $r0
	.loc	2 1076 25                       @ Library/StdDriver/src/clk.c:1076:25
	ldr	r2, [r1, #-144]
.Ltmp466:
	.loc	2 973 22                        @ Library/StdDriver/src/clk.c:973:22
	movw	r12, :lower16:g_CLK_i32ErrCode
.Ltmp467:
	.loc	2 1076 25                       @ Library/StdDriver/src/clk.c:1076:25
	orr	r2, r2, #8
	str	r2, [r1, #-144]
.Ltmp468:
	@DEBUG_VALUE: CLK_WaitClockReady:u32ClkMask <- 8
	.loc	2 970 30                        @ Library/StdDriver/src/clk.c:970:30
	movw	r2, :lower16:SystemCoreClock
	movt	r2, :upper16:SystemCoreClock
	ldr	r2, [r2]
	.loc	2 973 22                        @ Library/StdDriver/src/clk.c:973:22
	movt	r12, :upper16:g_CLK_i32ErrCode
	.loc	2 970 46                        @ Library/StdDriver/src/clk.c:970:46
	lsrs	r3, r2, #1
.Ltmp469:
	@DEBUG_VALUE: CLK_WaitClockReady:u32Ret <- 1
	@DEBUG_VALUE: CLK_WaitClockReady:u32TimeOutCnt <- $r3
	.loc	2 0 46 is_stmt 0                @ Library/StdDriver/src/clk.c:0:46
	movs	r2, #0
	.loc	2 973 22 is_stmt 1              @ Library/StdDriver/src/clk.c:973:22
	str.w	r2, [r12]
.Ltmp470:
.LBB24_6:                               @ =>This Inner Loop Header: Depth=1
	@DEBUG_VALUE: CLK_WaitClockReady:u32TimeOutCnt <- $r3
	@DEBUG_VALUE: CLK_WaitClockReady:u32Ret <- 1
	@DEBUG_VALUE: CLK_WaitClockReady:u32ClkMask <- 8
	@DEBUG_VALUE: CLK_SetPowerDownMode:u32PDMode <- $r0
	@DEBUG_VALUE: CLK_WaitClockReady:u32TimeOutCnt <- $r3
	.loc	2 974 17                        @ Library/StdDriver/src/clk.c:974:17
	ldr	r2, [r1, #-64]
	.loc	2 974 5 is_stmt 0               @ Library/StdDriver/src/clk.c:974:5
	lsls	r2, r2, #28
	bmi	.LBB24_17
.Ltmp471:
@ %bb.7:                                @   in Loop: Header=BB24_6 Depth=1
	@DEBUG_VALUE: CLK_WaitClockReady:u32TimeOutCnt <- $r3
	@DEBUG_VALUE: CLK_WaitClockReady:u32Ret <- 1
	@DEBUG_VALUE: CLK_WaitClockReady:u32ClkMask <- 8
	@DEBUG_VALUE: CLK_SetPowerDownMode:u32PDMode <- $r0
	@DEBUG_VALUE: CLK_WaitClockReady:u32TimeOutCnt <- [DW_OP_constu 1, DW_OP_minus, DW_OP_stack_value] $r3
	.loc	2 976 12 is_stmt 1              @ Library/StdDriver/src/clk.c:976:12
	cmp	r3, #1
	beq	.LBB24_18
.Ltmp472:
@ %bb.8:                                @   in Loop: Header=BB24_6 Depth=1
	@DEBUG_VALUE: CLK_WaitClockReady:u32TimeOutCnt <- [DW_OP_constu 1, DW_OP_minus, DW_OP_stack_value] $r3
	@DEBUG_VALUE: CLK_WaitClockReady:u32Ret <- 1
	@DEBUG_VALUE: CLK_WaitClockReady:u32ClkMask <- 8
	@DEBUG_VALUE: CLK_SetPowerDownMode:u32PDMode <- $r0
	@DEBUG_VALUE: CLK_WaitClockReady:u32TimeOutCnt <- [DW_OP_constu 1, DW_OP_minus, DW_OP_stack_value] $r3
	.loc	2 974 17                        @ Library/StdDriver/src/clk.c:974:17
	ldr	r2, [r1, #-64]
	.loc	2 974 5 is_stmt 0               @ Library/StdDriver/src/clk.c:974:5
	lsls	r2, r2, #28
	bmi	.LBB24_16
.Ltmp473:
@ %bb.9:                                @   in Loop: Header=BB24_6 Depth=1
	@DEBUG_VALUE: CLK_WaitClockReady:u32TimeOutCnt <- [DW_OP_constu 1, DW_OP_minus, DW_OP_stack_value] $r3
	@DEBUG_VALUE: CLK_WaitClockReady:u32Ret <- 1
	@DEBUG_VALUE: CLK_WaitClockReady:u32ClkMask <- 8
	@DEBUG_VALUE: CLK_SetPowerDownMode:u32PDMode <- $r0
	@DEBUG_VALUE: CLK_WaitClockReady:u32TimeOutCnt <- [DW_OP_constu 2, DW_OP_minus, DW_OP_stack_value] $r3
	.loc	2 976 12 is_stmt 1              @ Library/StdDriver/src/clk.c:976:12
	cmp	r3, #2
	beq	.LBB24_18
.Ltmp474:
@ %bb.10:                               @   in Loop: Header=BB24_6 Depth=1
	@DEBUG_VALUE: CLK_WaitClockReady:u32TimeOutCnt <- [DW_OP_constu 2, DW_OP_minus, DW_OP_stack_value] $r3
	@DEBUG_VALUE: CLK_WaitClockReady:u32Ret <- 1
	@DEBUG_VALUE: CLK_WaitClockReady:u32ClkMask <- 8
	@DEBUG_VALUE: CLK_SetPowerDownMode:u32PDMode <- $r0
	@DEBUG_VALUE: CLK_WaitClockReady:u32TimeOutCnt <- [DW_OP_constu 2, DW_OP_minus, DW_OP_stack_value] $r3
	.loc	2 974 17                        @ Library/StdDriver/src/clk.c:974:17
	ldr	r2, [r1, #-64]
	.loc	2 974 5 is_stmt 0               @ Library/StdDriver/src/clk.c:974:5
	lsls	r2, r2, #28
	bmi	.LBB24_16
.Ltmp475:
@ %bb.11:                               @   in Loop: Header=BB24_6 Depth=1
	@DEBUG_VALUE: CLK_WaitClockReady:u32TimeOutCnt <- [DW_OP_constu 2, DW_OP_minus, DW_OP_stack_value] $r3
	@DEBUG_VALUE: CLK_WaitClockReady:u32Ret <- 1
	@DEBUG_VALUE: CLK_WaitClockReady:u32ClkMask <- 8
	@DEBUG_VALUE: CLK_SetPowerDownMode:u32PDMode <- $r0
	@DEBUG_VALUE: CLK_WaitClockReady:u32TimeOutCnt <- [DW_OP_constu 3, DW_OP_minus, DW_OP_stack_value] $r3
	.loc	2 976 12 is_stmt 1              @ Library/StdDriver/src/clk.c:976:12
	cmp	r3, #3
	beq	.LBB24_18
.Ltmp476:
@ %bb.12:                               @   in Loop: Header=BB24_6 Depth=1
	@DEBUG_VALUE: CLK_WaitClockReady:u32TimeOutCnt <- [DW_OP_constu 3, DW_OP_minus, DW_OP_stack_value] $r3
	@DEBUG_VALUE: CLK_WaitClockReady:u32Ret <- 1
	@DEBUG_VALUE: CLK_WaitClockReady:u32ClkMask <- 8
	@DEBUG_VALUE: CLK_SetPowerDownMode:u32PDMode <- $r0
	@DEBUG_VALUE: CLK_WaitClockReady:u32TimeOutCnt <- [DW_OP_constu 3, DW_OP_minus, DW_OP_stack_value] $r3
	.loc	2 974 17                        @ Library/StdDriver/src/clk.c:974:17
	ldr	r2, [r1, #-64]
	.loc	2 974 5 is_stmt 0               @ Library/StdDriver/src/clk.c:974:5
	lsls	r2, r2, #28
	bmi	.LBB24_16
.Ltmp477:
@ %bb.13:                               @   in Loop: Header=BB24_6 Depth=1
	@DEBUG_VALUE: CLK_WaitClockReady:u32TimeOutCnt <- [DW_OP_constu 3, DW_OP_minus, DW_OP_stack_value] $r3
	@DEBUG_VALUE: CLK_WaitClockReady:u32Ret <- 1
	@DEBUG_VALUE: CLK_WaitClockReady:u32ClkMask <- 8
	@DEBUG_VALUE: CLK_SetPowerDownMode:u32PDMode <- $r0
	.loc	2 976 12 is_stmt 1              @ Library/StdDriver/src/clk.c:976:12
	subs	r3, #4
.Ltmp478:
	@DEBUG_VALUE: CLK_WaitClockReady:u32TimeOutCnt <- $r3
	.loc	2 976 12 is_stmt 0              @ Library/StdDriver/src/clk.c:976:12
	bne	.LBB24_6
	b	.LBB24_18
.Ltmp479:
.LBB24_14:
	@DEBUG_VALUE: CLK_SetPowerDownMode:u32PDMode <- $r0
	@DEBUG_VALUE: CLK_SetPowerDownMode:u32PDMode <- 4
	.loc	2 1067 33 is_stmt 1             @ Library/StdDriver/src/clk.c:1067:33
	ldr	r0, [r1]
	.loc	2 1067 40 is_stmt 0             @ Library/StdDriver/src/clk.c:1067:40
	bic	r0, r0, #112
.Ltmp480:
.LBB24_15:
	@DEBUG_VALUE: CLK_SetPowerDownMode:u32PDMode <- 4
	.loc	2 0 0                           @ Library/StdDriver/src/clk.c:0:0
	str	r0, [r1]
	movs	r0, #4
	b	.LBB24_19
.Ltmp481:
.LBB24_16:
	@DEBUG_VALUE: CLK_WaitClockReady:u32Ret <- 1
	@DEBUG_VALUE: CLK_WaitClockReady:u32ClkMask <- 8
	@DEBUG_VALUE: CLK_SetPowerDownMode:u32PDMode <- $r0
	movs	r3, #1
.Ltmp482:
.LBB24_17:
	@DEBUG_VALUE: CLK_WaitClockReady:u32Ret <- 1
	@DEBUG_VALUE: CLK_WaitClockReady:u32ClkMask <- 8
	@DEBUG_VALUE: CLK_SetPowerDownMode:u32PDMode <- $r0
	@DEBUG_VALUE: CLK_WaitClockReady:u32TimeOutCnt <- $r3
	@DEBUG_VALUE: CLK_WaitClockReady:u32Ret <- 1
	.loc	2 983 8 is_stmt 1               @ Library/StdDriver/src/clk.c:983:8
	cbnz	r3, .LBB24_19
.Ltmp483:
.LBB24_18:
	@DEBUG_VALUE: CLK_WaitClockReady:u32Ret <- 1
	@DEBUG_VALUE: CLK_WaitClockReady:u32ClkMask <- 8
	@DEBUG_VALUE: CLK_SetPowerDownMode:u32PDMode <- $r0
	.loc	2 0 8 is_stmt 0                 @ Library/StdDriver/src/clk.c:0:8
	mov.w	r2, #-1
.Ltmp484:
	.loc	2 984 26 is_stmt 1              @ Library/StdDriver/src/clk.c:984:26
	str.w	r2, [r12]
.Ltmp485:
.LBB24_19:
	@DEBUG_VALUE: CLK_SetPowerDownMode:u32PDMode <- $r0
	.loc	2 1083 25                       @ Library/StdDriver/src/clk.c:1083:25
	ldr	r2, [r1]
	.loc	2 1083 32 is_stmt 0             @ Library/StdDriver/src/clk.c:1083:32
	bic	r2, r2, #7
	.loc	2 1083 60                       @ Library/StdDriver/src/clk.c:1083:60
	orrs	r0, r2
.Ltmp486:
	.loc	2 1083 17                       @ Library/StdDriver/src/clk.c:1083:17
	str	r0, [r1]
	.loc	2 1084 1 is_stmt 1              @ Library/StdDriver/src/clk.c:1084:1
	bx	lr
.Ltmp487:
.Lfunc_end24:
	.size	CLK_SetPowerDownMode, .Lfunc_end24-CLK_SetPowerDownMode
	.cfi_endproc
	.cantunwind
	.fnend
                                        @ -- End function
	.hidden	CLK_EnableDPDWKPin              @ -- Begin function CLK_EnableDPDWKPin
	.globl	CLK_EnableDPDWKPin
	.p2align	2
	.type	CLK_EnableDPDWKPin,%function
	.code	16                              @ @CLK_EnableDPDWKPin
	.thumb_func
CLK_EnableDPDWKPin:
.Lfunc_begin25:
	.loc	2 1112 0                        @ Library/StdDriver/src/clk.c:1112:0
	.fnstart
	.cfi_startproc
@ %bb.0:
	@DEBUG_VALUE: CLK_EnableDPDWKPin:u32TriggerType <- $r0
	movw	r1, #656
	movt	r1, #16384
.Ltmp488:
	.loc	2 1115 15 prologue_end          @ Library/StdDriver/src/clk.c:1115:15
	ldr	r2, [r1, #-156]
	.loc	2 1115 23 is_stmt 0             @ Library/StdDriver/src/clk.c:1115:23
	uxtb	r2, r2
.Ltmp489:
	.loc	2 1115 9                        @ Library/StdDriver/src/clk.c:1115:9
	cmp	r2, #1
	bne	.LBB25_3
.Ltmp490:
@ %bb.1:
	@DEBUG_VALUE: CLK_EnableDPDWKPin:u32TriggerType <- $r0
	@DEBUG_VALUE: CLK_EnableDPDWKPin:u32Pin1 <- undef
	@DEBUG_VALUE: CLK_EnableDPDWKPin:u32Pin2 <- [DW_OP_constu 201326592, DW_OP_and, DW_OP_stack_value] $r0
	@DEBUG_VALUE: CLK_EnableDPDWKPin:u32Pin3 <- undef
	@DEBUG_VALUE: CLK_EnableDPDWKPin:u32Pin4 <- [DW_OP_constu 18446744072635809792, DW_OP_and, DW_OP_stack_value] $r0
	.loc	2 1123 12 is_stmt 1             @ Library/StdDriver/src/clk.c:1123:12
	tst.w	r0, #50331648
	beq	.LBB25_6
.Ltmp491:
@ %bb.2:
	@DEBUG_VALUE: CLK_EnableDPDWKPin:u32Pin4 <- [DW_OP_constu 18446744072635809792, DW_OP_and, DW_OP_stack_value] $r0
	@DEBUG_VALUE: CLK_EnableDPDWKPin:u32Pin2 <- [DW_OP_constu 201326592, DW_OP_and, DW_OP_stack_value] $r0
	@DEBUG_VALUE: CLK_EnableDPDWKPin:u32TriggerType <- $r0
	.loc	2 1125 33                       @ Library/StdDriver/src/clk.c:1125:33
	ldr	r2, [r1]
	.loc	2 1125 40 is_stmt 0             @ Library/StdDriver/src/clk.c:1125:40
	bic	r2, r2, #50331648
	b	.LBB25_5
.Ltmp492:
.LBB25_3:
	@DEBUG_VALUE: CLK_EnableDPDWKPin:u32TriggerType <- $r0
	.loc	2 1146 29 is_stmt 1             @ Library/StdDriver/src/clk.c:1146:29
	ldr	r2, [r1]
.Ltmp493:
.LBB25_4:
	@DEBUG_VALUE: CLK_EnableDPDWKPin:u32TriggerType <- $r0
	.loc	2 0 0 is_stmt 0                 @ Library/StdDriver/src/clk.c:0:0
	bic	r2, r2, #196608
.Ltmp494:
.LBB25_5:
	@DEBUG_VALUE: CLK_EnableDPDWKPin:u32TriggerType <- $r0
	orrs	r0, r2
.Ltmp495:
	@DEBUG_VALUE: CLK_EnableDPDWKPin:u32TriggerType <- [DW_OP_LLVM_entry_value 1] $r0
	str	r0, [r1]
.Ltmp496:
	.loc	2 1148 1 is_stmt 1              @ Library/StdDriver/src/clk.c:1148:1
	bx	lr
.Ltmp497:
.LBB25_6:
	@DEBUG_VALUE: CLK_EnableDPDWKPin:u32Pin4 <- [DW_OP_constu 18446744072635809792, DW_OP_and, DW_OP_stack_value] $r0
	@DEBUG_VALUE: CLK_EnableDPDWKPin:u32Pin2 <- [DW_OP_constu 201326592, DW_OP_and, DW_OP_stack_value] $r0
	@DEBUG_VALUE: CLK_EnableDPDWKPin:u32TriggerType <- $r0
	@DEBUG_VALUE: CLK_EnableDPDWKPin:u32Pin2 <- undef
	.loc	2 1127 17                       @ Library/StdDriver/src/clk.c:1127:17
	tst.w	r0, #201326592
	beq	.LBB25_8
.Ltmp498:
@ %bb.7:
	@DEBUG_VALUE: CLK_EnableDPDWKPin:u32Pin4 <- [DW_OP_constu 18446744072635809792, DW_OP_and, DW_OP_stack_value] $r0
	@DEBUG_VALUE: CLK_EnableDPDWKPin:u32TriggerType <- $r0
	.loc	2 1129 33                       @ Library/StdDriver/src/clk.c:1129:33
	ldr	r2, [r1]
	.loc	2 1129 40 is_stmt 0             @ Library/StdDriver/src/clk.c:1129:40
	bic	r2, r2, #201326592
	b	.LBB25_5
.Ltmp499:
.LBB25_8:
	@DEBUG_VALUE: CLK_EnableDPDWKPin:u32Pin4 <- [DW_OP_constu 18446744072635809792, DW_OP_and, DW_OP_stack_value] $r0
	@DEBUG_VALUE: CLK_EnableDPDWKPin:u32TriggerType <- $r0
	.loc	2 1131 17 is_stmt 1             @ Library/StdDriver/src/clk.c:1131:17
	tst.w	r0, #805306368
	beq	.LBB25_10
.Ltmp500:
@ %bb.9:
	@DEBUG_VALUE: CLK_EnableDPDWKPin:u32Pin4 <- [DW_OP_constu 18446744072635809792, DW_OP_and, DW_OP_stack_value] $r0
	@DEBUG_VALUE: CLK_EnableDPDWKPin:u32TriggerType <- $r0
	.loc	2 1133 33                       @ Library/StdDriver/src/clk.c:1133:33
	ldr	r2, [r1]
	.loc	2 1133 40 is_stmt 0             @ Library/StdDriver/src/clk.c:1133:40
	bic	r2, r2, #805306368
	b	.LBB25_5
.Ltmp501:
.LBB25_10:
	@DEBUG_VALUE: CLK_EnableDPDWKPin:u32Pin4 <- [DW_OP_constu 18446744072635809792, DW_OP_and, DW_OP_stack_value] $r0
	@DEBUG_VALUE: CLK_EnableDPDWKPin:u32TriggerType <- $r0
	.loc	2 0 0                           @ Library/StdDriver/src/clk.c:0:0
	ldr	r2, [r1]
.Ltmp502:
	.loc	2 1135 17 is_stmt 1             @ Library/StdDriver/src/clk.c:1135:17
	cmp.w	r0, #1073741824
	blo	.LBB25_4
.Ltmp503:
@ %bb.11:
	@DEBUG_VALUE: CLK_EnableDPDWKPin:u32Pin4 <- [DW_OP_constu 18446744072635809792, DW_OP_and, DW_OP_stack_value] $r0
	@DEBUG_VALUE: CLK_EnableDPDWKPin:u32TriggerType <- $r0
	.loc	2 1137 40                       @ Library/StdDriver/src/clk.c:1137:40
	bic	r2, r2, #-1073741824
	b	.LBB25_5
.Ltmp504:
.Lfunc_end25:
	.size	CLK_EnableDPDWKPin, .Lfunc_end25-CLK_EnableDPDWKPin
	.cfi_endproc
	.cantunwind
	.fnend
                                        @ -- End function
	.hidden	CLK_GetPMUWKSrc                 @ -- Begin function CLK_GetPMUWKSrc
	.globl	CLK_GetPMUWKSrc
	.p2align	2
	.type	CLK_GetPMUWKSrc,%function
	.code	16                              @ @CLK_GetPMUWKSrc
	.thumb_func
CLK_GetPMUWKSrc:
.Lfunc_begin26:
	.loc	2 1160 0                        @ Library/StdDriver/src/clk.c:1160:0
	.fnstart
	.cfi_startproc
@ %bb.0:
	movw	r0, #660
	movt	r0, #16384
.Ltmp505:
	.loc	2 1161 18 prologue_end          @ Library/StdDriver/src/clk.c:1161:18
	ldr	r0, [r0]
	.loc	2 1161 5 is_stmt 0              @ Library/StdDriver/src/clk.c:1161:5
	bx	lr
.Ltmp506:
.Lfunc_end26:
	.size	CLK_GetPMUWKSrc, .Lfunc_end26-CLK_GetPMUWKSrc
	.cfi_endproc
	.cantunwind
	.fnend
                                        @ -- End function
	.hidden	CLK_EnableSPDWKPin              @ -- Begin function CLK_EnableSPDWKPin
	.globl	CLK_EnableSPDWKPin
	.p2align	2
	.type	CLK_EnableSPDWKPin,%function
	.code	16                              @ @CLK_EnableSPDWKPin
	.thumb_func
CLK_EnableSPDWKPin:
.Lfunc_begin27:
	.loc	2 1181 0 is_stmt 1              @ Library/StdDriver/src/clk.c:1181:0
	.fnstart
	.cfi_startproc
@ %bb.0:
	@DEBUG_VALUE: CLK_EnableSPDWKPin:u32Port <- $r0
	@DEBUG_VALUE: CLK_EnableSPDWKPin:u32Pin <- $r1
	@DEBUG_VALUE: CLK_EnableSPDWKPin:u32TriggerType <- $r2
	@DEBUG_VALUE: CLK_EnableSPDWKPin:u32DebounceEn <- $r3
	.save	{r4, lr}
	push	{r4, lr}
	.cfi_def_cfa_offset 8
	.cfi_offset lr, -4
	.cfi_offset r4, -8
.Ltmp507:
	@DEBUG_VALUE: CLK_EnableSPDWKPin:u32tmpVal <- 0
	@DEBUG_VALUE: CLK_EnableSPDWKPin:u32tmpAddr <- undef
	movw	r12, #672
	movt	r12, #16384
.Ltmp508:
	.loc	2 1189 17 prologue_end          @ Library/StdDriver/src/clk.c:1189:17
	ldr.w	lr, [r12, r0, lsl #2]
.Ltmp509:
	@DEBUG_VALUE: CLK_EnableSPDWKPin:u32tmpVal <- $lr
	.loc	2 0 17 is_stmt 0                @ Library/StdDriver/src/clk.c:0:17
	movw	r4, #503
	.loc	2 1191 53 is_stmt 1             @ Library/StdDriver/src/clk.c:1191:53
	orr.w	r1, r2, r1, lsl #4
.Ltmp510:
	@DEBUG_VALUE: CLK_EnableSPDWKPin:u32Pin <- [DW_OP_LLVM_entry_value 1] $r1
	.loc	2 1190 28                       @ Library/StdDriver/src/clk.c:1190:28
	bic.w	r4, lr, r4
	.loc	2 1191 70                       @ Library/StdDriver/src/clk.c:1191:70
	orrs	r1, r3
	.loc	2 1191 86 is_stmt 0             @ Library/StdDriver/src/clk.c:1191:86
	orrs	r1, r4
	orr	r1, r1, #1
.Ltmp511:
	@DEBUG_VALUE: CLK_EnableSPDWKPin:u32tmpVal <- $r1
	.loc	2 1192 5 is_stmt 1              @ Library/StdDriver/src/clk.c:1192:5
	str.w	r1, [r12, r0, lsl #2]
	.loc	2 1193 1 epilogue_begin         @ Library/StdDriver/src/clk.c:1193:1
	pop	{r4, pc}
.Ltmp512:
.Lfunc_end27:
	.size	CLK_EnableSPDWKPin, .Lfunc_end27-CLK_EnableSPDWKPin
	.cfi_endproc
	.cantunwind
	.fnend
                                        @ -- End function
	.hidden	CLK_GetModuleClockSource        @ -- Begin function CLK_GetModuleClockSource
	.globl	CLK_GetModuleClockSource
	.p2align	2
	.type	CLK_GetModuleClockSource,%function
	.code	16                              @ @CLK_GetModuleClockSource
	.thumb_func
CLK_GetModuleClockSource:
.Lfunc_begin28:
	.loc	2 1288 0                        @ Library/StdDriver/src/clk.c:1288:0
	.fnstart
	.cfi_startproc
@ %bb.0:
	@DEBUG_VALUE: CLK_GetModuleClockSource:u32ModuleIdx <- $r0
	@DEBUG_VALUE: CLK_GetModuleClockSource:u32sel <- 0
	movs	r1, #17
	movt	r1, #41600
.Ltmp513:
	.loc	2 1293 8 prologue_end           @ Library/StdDriver/src/clk.c:1293:8
	cmp	r0, r1
	bgt	.LBB28_4
.Ltmp514:
@ %bb.1:
	@DEBUG_VALUE: CLK_GetModuleClockSource:u32sel <- 0
	@DEBUG_VALUE: CLK_GetModuleClockSource:u32ModuleIdx <- $r0
	.loc	2 0 8 is_stmt 0                 @ Library/StdDriver/src/clk.c:0:8
	movs	r1, #16
	movt	r1, #41472
	.loc	2 1293 8                        @ Library/StdDriver/src/clk.c:1293:8
	cmp	r0, r1
	beq	.LBB28_9
.Ltmp515:
@ %bb.2:
	@DEBUG_VALUE: CLK_GetModuleClockSource:u32sel <- 0
	@DEBUG_VALUE: CLK_GetModuleClockSource:u32ModuleIdx <- $r0
	.loc	2 0 8                           @ Library/StdDriver/src/clk.c:0:8
	movs	r1, #17
	movt	r1, #41488
	.loc	2 1293 8                        @ Library/StdDriver/src/clk.c:1293:8
	cmp	r0, r1
	bne	.LBB28_7
.Ltmp516:
@ %bb.3:
	@DEBUG_VALUE: CLK_GetModuleClockSource:u32sel <- 0
	@DEBUG_VALUE: CLK_GetModuleClockSource:u32ModuleIdx <- $r0
	.loc	2 0 8                           @ Library/StdDriver/src/clk.c:0:8
	movw	r0, #536
.Ltmp517:
	@DEBUG_VALUE: CLK_GetModuleClockSource:u32ModuleIdx <- [DW_OP_LLVM_entry_value 1] $r0
	movt	r0, #16384
.Ltmp518:
	.loc	2 1296 23 is_stmt 1             @ Library/StdDriver/src/clk.c:1296:23
	ldr	r0, [r0]
	.loc	2 1296 59 is_stmt 0             @ Library/StdDriver/src/clk.c:1296:59
	ubfx	r0, r0, #1, #1
.Ltmp519:
	.loc	2 1310 1 is_stmt 1              @ Library/StdDriver/src/clk.c:1310:1
	bx	lr
.Ltmp520:
.LBB28_4:
	@DEBUG_VALUE: CLK_GetModuleClockSource:u32sel <- 0
	@DEBUG_VALUE: CLK_GetModuleClockSource:u32ModuleIdx <- $r0
	.loc	2 0 1 is_stmt 0                 @ Library/StdDriver/src/clk.c:0:1
	movs	r1, #18
	movt	r1, #41600
	.loc	2 1293 8 is_stmt 1              @ Library/StdDriver/src/clk.c:1293:8
	cmp	r0, r1
	beq	.LBB28_10
.Ltmp521:
@ %bb.5:
	@DEBUG_VALUE: CLK_GetModuleClockSource:u32sel <- 0
	@DEBUG_VALUE: CLK_GetModuleClockSource:u32ModuleIdx <- $r0
	.loc	2 0 8 is_stmt 0                 @ Library/StdDriver/src/clk.c:0:8
	movs	r1, #19
	movt	r1, #41616
	.loc	2 1293 8                        @ Library/StdDriver/src/clk.c:1293:8
	cmp	r0, r1
	bne	.LBB28_7
.Ltmp522:
@ %bb.6:
	@DEBUG_VALUE: CLK_GetModuleClockSource:u32sel <- 0
	@DEBUG_VALUE: CLK_GetModuleClockSource:u32ModuleIdx <- $r0
	.loc	2 0 8                           @ Library/StdDriver/src/clk.c:0:8
	movw	r0, #536
.Ltmp523:
	@DEBUG_VALUE: CLK_GetModuleClockSource:u32ModuleIdx <- [DW_OP_LLVM_entry_value 1] $r0
	movt	r0, #16384
.Ltmp524:
	.loc	2 1300 23 is_stmt 1             @ Library/StdDriver/src/clk.c:1300:23
	ldr	r0, [r0]
	.loc	2 1300 59 is_stmt 0             @ Library/StdDriver/src/clk.c:1300:59
	ubfx	r0, r0, #9, #1
.Ltmp525:
	.loc	2 1310 1 is_stmt 1              @ Library/StdDriver/src/clk.c:1310:1
	bx	lr
.Ltmp526:
.LBB28_7:
	@DEBUG_VALUE: CLK_GetModuleClockSource:u32sel <- 0
	@DEBUG_VALUE: CLK_GetModuleClockSource:u32ModuleIdx <- $r0
	.loc	2 1301 13                       @ Library/StdDriver/src/clk.c:1301:13
	ubfx	r1, r0, #25, #3
.Ltmp527:
	.loc	2 1301 13 is_stmt 0             @ Library/StdDriver/src/clk.c:1301:13
	cmp	r1, #0
	itt	eq
	moveq	r0, #0
.Ltmp528:
	@DEBUG_VALUE: CLK_GetModuleClockSource:u32ModuleIdx <- [DW_OP_LLVM_entry_value 1] $r0
	.loc	2 1310 1 is_stmt 1              @ Library/StdDriver/src/clk.c:1310:1
	bxeq	lr
.Ltmp529:
.LBB28_8:
	@DEBUG_VALUE: CLK_GetModuleClockSource:u32ModuleIdx <- [DW_OP_LLVM_entry_value 1] $r0
	@DEBUG_VALUE: CLK_GetModuleClockSource:u32sel <- 0
	.loc	2 1304 45                       @ Library/StdDriver/src/clk.c:1304:45
	ubfx	r2, r0, #28, #2
	adr	r3, .LCPI28_0
	ldr.w	r2, [r3, r2, lsl #2]
	.loc	2 1306 68                       @ Library/StdDriver/src/clk.c:1306:68
	ubfx	r0, r0, #20, #5
	.loc	2 1304 42                       @ Library/StdDriver/src/clk.c:1304:42
	add.w	r2, r2, #1073741824
	add.w	r2, r2, #536
.Ltmp530:
	@DEBUG_VALUE: CLK_GetModuleClockSource:u32sel <- [DW_OP_plus_uconst 4294967288, DW_OP_stack_value] $r2
	.loc	2 1306 18                       @ Library/StdDriver/src/clk.c:1306:18
	ldr	r2, [r2, #-8]
.Ltmp531:
	.loc	2 1306 65 is_stmt 0             @ Library/StdDriver/src/clk.c:1306:65
	lsls	r1, r0
	.loc	2 1306 30                       @ Library/StdDriver/src/clk.c:1306:30
	ands	r1, r2
	.loc	2 1306 102                      @ Library/StdDriver/src/clk.c:1306:102
	lsr.w	r0, r1, r0
.Ltmp532:
	.loc	2 1310 1 is_stmt 1              @ Library/StdDriver/src/clk.c:1310:1
	bx	lr
.Ltmp533:
.LBB28_9:
	@DEBUG_VALUE: CLK_GetModuleClockSource:u32sel <- 0
	@DEBUG_VALUE: CLK_GetModuleClockSource:u32ModuleIdx <- $r0
	.loc	2 0 1 is_stmt 0                 @ Library/StdDriver/src/clk.c:0:1
	movw	r0, #536
.Ltmp534:
	@DEBUG_VALUE: CLK_GetModuleClockSource:u32ModuleIdx <- [DW_OP_LLVM_entry_value 1] $r0
	movt	r0, #16384
.Ltmp535:
	.loc	2 1294 23 is_stmt 1             @ Library/StdDriver/src/clk.c:1294:23
	ldr	r0, [r0]
	.loc	2 1294 31 is_stmt 0             @ Library/StdDriver/src/clk.c:1294:31
	and	r0, r0, #1
.Ltmp536:
	.loc	2 1310 1 is_stmt 1              @ Library/StdDriver/src/clk.c:1310:1
	bx	lr
.Ltmp537:
.LBB28_10:
	@DEBUG_VALUE: CLK_GetModuleClockSource:u32sel <- 0
	@DEBUG_VALUE: CLK_GetModuleClockSource:u32ModuleIdx <- $r0
	.loc	2 0 1 is_stmt 0                 @ Library/StdDriver/src/clk.c:0:1
	movw	r0, #536
.Ltmp538:
	@DEBUG_VALUE: CLK_GetModuleClockSource:u32ModuleIdx <- [DW_OP_LLVM_entry_value 1] $r0
	movt	r0, #16384
.Ltmp539:
	.loc	2 1298 23 is_stmt 1             @ Library/StdDriver/src/clk.c:1298:23
	ldr	r0, [r0]
	.loc	2 1298 59 is_stmt 0             @ Library/StdDriver/src/clk.c:1298:59
	ubfx	r0, r0, #8, #1
.Ltmp540:
	.loc	2 1310 1 is_stmt 1              @ Library/StdDriver/src/clk.c:1310:1
	bx	lr
.Ltmp541:
	.p2align	2
@ %bb.11:
	.loc	2 0 1 is_stmt 0                 @ Library/StdDriver/src/clk.c:0:1
.LCPI28_0:
.L__const.CLK_GetModuleClockSource.u32SelTbl:
	.long	0                               @ 0x0
	.long	4                               @ 0x4
	.long	8                               @ 0x8
	.long	12                              @ 0xc
.Lfunc_end28:
	.size	CLK_GetModuleClockSource, .Lfunc_end28-CLK_GetModuleClockSource
	.cfi_endproc
	.cantunwind
	.fnend
                                        @ -- End function
	.hidden	CLK_GetModuleClockDivider       @ -- Begin function CLK_GetModuleClockDivider
	.globl	CLK_GetModuleClockDivider
	.p2align	2
	.type	CLK_GetModuleClockDivider,%function
	.code	16                              @ @CLK_GetModuleClockDivider
	.thumb_func
CLK_GetModuleClockDivider:
.Lfunc_begin29:
	.fnstart
	.cfi_startproc
@ %bb.0:
	@DEBUG_VALUE: CLK_GetModuleClockDivider:u32ModuleIdx <- $r0
	@DEBUG_VALUE: CLK_GetModuleClockDivider:u32div <- 0
	.loc	2 1341 8 prologue_end is_stmt 1 @ Library/StdDriver/src/clk.c:1341:8
	ubfx	r12, r0, #10, #8
.Ltmp542:
	.loc	2 1341 8 is_stmt 0              @ Library/StdDriver/src/clk.c:1341:8
	cmp.w	r12, #0
	itt	eq
	moveq	r0, #0
.Ltmp543:
	@DEBUG_VALUE: CLK_GetModuleClockDivider:u32ModuleIdx <- [DW_OP_LLVM_entry_value 1] $r0
	.loc	2 1357 1 is_stmt 1              @ Library/StdDriver/src/clk.c:1357:1
	bxeq	lr
.Ltmp544:
.LBB29_1:
	@DEBUG_VALUE: CLK_GetModuleClockDivider:u32ModuleIdx <- [DW_OP_LLVM_entry_value 1] $r0
	@DEBUG_VALUE: CLK_GetModuleClockDivider:u32div <- 0
	.loc	2 0 1 is_stmt 0                 @ Library/StdDriver/src/clk.c:0:1
	movw	r2, #552
	movt	r2, #16384
.Ltmp545:
	.loc	2 1344 45 is_stmt 1             @ Library/StdDriver/src/clk.c:1344:45
	ubfx	r3, r0, #18, #2
	adr	r1, .LCPI29_0
	ldr.w	r1, [r1, r3, lsl #2]
.Ltmp546:
	.loc	2 1345 19                       @ Library/StdDriver/src/clk.c:1345:19
	ldr	r3, [r2, #-52]
.Ltmp547:
	.loc	2 1344 42                       @ Library/StdDriver/src/clk.c:1344:42
	add	r1, r2
.Ltmp548:
	.loc	2 1345 27                       @ Library/StdDriver/src/clk.c:1345:27
	uxtb	r3, r3
.Ltmp549:
	.loc	2 1345 13 is_stmt 0             @ Library/StdDriver/src/clk.c:1345:13
	cmp	r3, #1
	.loc	2 1344 42 is_stmt 1             @ Library/StdDriver/src/clk.c:1344:42
	sub.w	r3, r1, #8
.Ltmp550:
	@DEBUG_VALUE: CLK_GetModuleClockDivider:u32div <- $r3
	.loc	2 1345 13                       @ Library/StdDriver/src/clk.c:1345:13
	bne	.LBB29_3
.Ltmp551:
@ %bb.2:
	@DEBUG_VALUE: CLK_GetModuleClockDivider:u32div <- $r3
	@DEBUG_VALUE: CLK_GetModuleClockDivider:u32ModuleIdx <- [DW_OP_LLVM_entry_value 1] $r0
	.loc	2 1347 16                       @ Library/StdDriver/src/clk.c:1347:16
	orr	r1, r0, #2
.Ltmp552:
	.loc	2 1347 16 is_stmt 0             @ Library/StdDriver/src/clk.c:1347:16
	and	r1, r1, #31
	cmp	r1, #31
	it	ne
	movne	r2, r3
	b	.LBB29_4
.Ltmp553:
.LBB29_3:
	@DEBUG_VALUE: CLK_GetModuleClockDivider:u32div <- $r3
	@DEBUG_VALUE: CLK_GetModuleClockDivider:u32ModuleIdx <- [DW_OP_LLVM_entry_value 1] $r0
	.loc	2 0 16                          @ Library/StdDriver/src/clk.c:0:16
	mov	r2, r3
.Ltmp554:
.LBB29_4:
	@DEBUG_VALUE: CLK_GetModuleClockDivider:u32div <- $r3
	@DEBUG_VALUE: CLK_GetModuleClockDivider:u32ModuleIdx <- [DW_OP_LLVM_entry_value 1] $r0
	@DEBUG_VALUE: CLK_GetModuleClockDivider:u32div <- $r2
	.loc	2 1353 18 is_stmt 1             @ Library/StdDriver/src/clk.c:1353:18
	ldr	r1, [r2]
	.loc	2 1353 68 is_stmt 0             @ Library/StdDriver/src/clk.c:1353:68
	ubfx	r0, r0, #5, #5
	.loc	2 1353 65                       @ Library/StdDriver/src/clk.c:1353:65
	lsl.w	r2, r12, r0
.Ltmp555:
	.loc	2 1353 30                       @ Library/StdDriver/src/clk.c:1353:30
	ands	r1, r2
	.loc	2 1353 102                      @ Library/StdDriver/src/clk.c:1353:102
	lsr.w	r0, r1, r0
.Ltmp556:
	.loc	2 1357 1 is_stmt 1              @ Library/StdDriver/src/clk.c:1357:1
	bx	lr
.Ltmp557:
	.p2align	2
@ %bb.5:
	.loc	2 0 1 is_stmt 0                 @ Library/StdDriver/src/clk.c:0:1
.LCPI29_0:
.L__const.CLK_GetModuleClockDivider.u32DivTbl:
	.long	0                               @ 0x0
	.long	4                               @ 0x4
	.long	12                              @ 0xc
	.long	16                              @ 0x10
.Lfunc_end29:
	.size	CLK_GetModuleClockDivider, .Lfunc_end29-CLK_GetModuleClockDivider
	.cfi_endproc
	.cantunwind
	.fnend
                                        @ -- End function
	.hidden	g_CLK_i32ErrCode                @ @g_CLK_i32ErrCode
	.type	g_CLK_i32ErrCode,%object
	.section	.bss.g_CLK_i32ErrCode,"aw",%nobits
	.globl	g_CLK_i32ErrCode
	.p2align	2, 0x0
g_CLK_i32ErrCode:
	.long	0                               @ 0x0
	.size	g_CLK_i32ErrCode, 4

	.type	.L__const.CLK_GetPLLClockFreq.au8NoTbl,%object @ @__const.CLK_GetPLLClockFreq.au8NoTbl
	.section	.rodata.cst4,"aM",%progbits,4
.L__const.CLK_GetPLLClockFreq.au8NoTbl:
	.ascii	"\001\002\002\004"
	.size	.L__const.CLK_GetPLLClockFreq.au8NoTbl, 4

	.section	".note.GNU-stack","",%progbits
	.eabi_attribute	30, 1	@ Tag_ABI_optimization_goals
	.ARM_attribute	16, 1	@ Tag_AV_eba